Microchip MPLAB XC8 Compiler V2.46

Linker command line:

-W-3 \
  --edf=C:\Program Files\Microchip\xc8\v2.46\pic\dat\20240104201356_en.msgs \
  -cn -h+dist/PIC18F26K80/production\Universal-VLCB.X.production.sym \
  --cmf=dist/PIC18F26K80/production\Universal-VLCB.X.production.cmf -z \
  -Q18F26K80 -oC:\Users\ianwh\AppData\Local\Temp\xcAs150s.\driver_tmp_3.o \
  --defsym=__MPLAB_BUILD=1 --fixupoverflow=error -MCODEOFFSET=0x800 \
  --md=C:\Users\ianwh\AppData\Local\Temp\xcAs150s.\driver_tmp_0.dat -E1 \
  -ver=XC8 Compiler --acfsm=1493 -p_eventTable_text=EF80h -p_name_text=848h \
  -p_paramBlock_text=820h -ACODE=00h-0FFFFh -ACONST=00h-0FFFFh \
  -ASMALLCONST=0F00h-0FFFhx241 -AMEDIUMCONST=0F00h-0FFFFh -ACOMRAM=01h-05Fh \
  -AABS1=00h-0E40h -ABIGRAM=01h-0E40h \
  -ARAM=060h-0FFh,0100h-01FFhx13,0E00h-0E40h -ABANK0=060h-0FFh \
  -ABANK1=0100h-01FFh -ABANK2=0200h-02FFh -ABANK3=0300h-03FFh \
  -ABANK4=0400h-04FFh -ABANK5=0500h-05FFh -ABANK6=0600h-06FFh \
  -ABANK7=0700h-07FFh -ABANK8=0800h-08FFh -ABANK9=0900h-09FFh \
  -ABANK10=0A00h-0AFFh -ABANK11=0B00h-0BFFh -ABANK12=0C00h-0CFFh \
  -ABANK13=0D00h-0DFFh -ABANK14=0E00h-0E40h \
  -ASFR=0E41h-0EFFh,0F00h-0F5Fh,0F60h-0FFFh -ABIGSFR=0E41h-0FFFh \
  -ACONFIG=0300000h-030000Dh -AIDLOC=0200000h-0200007h \
  -AEEDATA=0F00000h-0F003FFh -peeprom_data=EEDATA \
  -preset_vec=00h,intcode=8h,intcodelo=18h,powerup,init -pramtop=0F00h \
  -psmallconst=SMALLCONST -pmediumconst=MEDIUMCONST -pconst=CONST \
  -AFARRAM=00h-00h \
  -prdata=COMRAM,nvrram=COMRAM,nvbit=COMRAM,rbss=COMRAM,rbit=COMRAM \
  -pfarbss=FARRAM,fardata=FARRAM,nvFARRAM=FARRAM \
  -pintsave_regs=BIGRAM,bigbss=BIGRAM,bigdata=BIGRAM -pbss=RAM \
  -pidata=CODE,irdata=CODE,ibigdata=CODE,ifardata=CODE -prparam=COMRAM \
  C:\Users\ianwh\AppData\Local\Temp\xcAs150s.\driver_tmp_9.o \
  dist/PIC18F26K80/production\Universal-VLCB.X.production.o 

Object code version is 3.11

Machine type is 18F26K80



                Name                               Link     Load   Length Selector   Space Scale
C:\Users\ianwh\AppData\Local\Temp\xcAs150s.\driver_tmp_9.o
                config                           300000   300000        E        0       4
                init                                 1C       1C        4        C       0
                reset_vec                             0        0        4        0       0
dist/PIC18F26K80/production\Universal-VLCB.X.production.o
                eeprom_data                      F00000   F00000      400   F00000       0
                intcodelo                            18       18        4        C       0
                intcode                               8        8        4        4       0
                config                           300000   300000        E        0       4
                temp                                 55       55        1        1       1
                mediumconst                        ED34     ED34      24C     769A       0
                text202                            BC5C     BC5C        2      424       0
                text201                            94C6     94C6       BA      424       0
                text200                            8748     8748       E6      424       0
                text199                            A684     A684       7A      424       0
                text198                            74A2     74A2      128      424       0
                text197                            BBC0     BBC0       16      424       0
                text196                            6288     6288      1AA      424       0
                text195                            B6AA     B6AA       38      424       0
                text194                            984A     984A       AE      424       0
                text193                            50DC     50DC      2C2      424       0
                text192                            A398     A398       82      424       0
                text191                            AAFA     AAFA       68      424       0
                text190                            B5FE     B5FE       3C      424       0
                text189                            848E     848E       EA      424       0
                text187                            BC5A     BC5A        2      424       0
                text186                            9292     9292       BE      424       0
                text185                            8660     8660       E8      424       0
                text184                            A866     A866       78      424       0
                text183                            7376     7376      12C      424       0
                text182                            BBAA     BBAA       16      424       0
                text181                            60DA     60DA      1AE      424       0
                text180                            B5C2     B5C2       3C      424       0
                text179                            979A     979A       B0      424       0
                text178                            4DEE     4DEE      2EE      424       0
                text177                            A316     A316       82      424       0
                text176                            AA92     AA92       68      424       0
                text175                            BA76     BA76       28      424       0
                text174                            B384     B384       46      424       0
                text173                            81CA     81CA       EE      424       0
                mainSec                            82B8     82B8       EC      424       0
                text171                            BC58     BC58        2      424       0
                text170                            BC56     BC56        2      424       0
                text169                            B7E8     B7E8       32      424       0
                text168                            AF86     AF86       58      424       0
                text167                            A8DE     A8DE       76      424       0
                text166                            AFDE     AFDE       56      424       0
                text165                            5ACE     5ACE      20C      424       0
                text164                            940C     940C       BA      424       0
                text163                            BB94     BB94       16      424       0
                text162                            9EB4     9EB4       96      424       0
                text161                            BC52     BC52        4      424       0
                text160                            A9C0     A9C0       6A      424       0
                text159                            9A50     9A50       A8      424       0
                text158                            AA2A     AA2A       68      424       0
                text157                            75CA     75CA      112      424       0
                text156                            AE14     AE14       5E      424       0
                text155                            4112     4112      35A      424       0
                text154                            A60A     A60A       7A      424       0
                text153                            BB0C     BB0C       20      424       0
                text152                            8C6A     8C6A       CE      424       0
                text151                            9114     9114       C0      424       0
                text150                            ABC8     ABC8       66      424       0
                text149                            6C08     6C08      150      424       0
                text148                            65D8     65D8      1A2      424       0
                text147                            691A     691A      17E      424       0
                text146                            6FDC     6FDC      13C      424       0
                text145                            A7EE     A7EE       78      424       0
                text144                            271A     271A      422      424       0
                text143                            5632     5632      256      424       0
                text142                            7FDE     7FDE       F8      424       0
                text141                            78E6     78E6      104      424       0
                text140                            B494     B494       3E      424       0
                text139                            FF70     FF70       8A     77C0       0
                text138                            AD54     AD54       62      424       0
                text137                            B672     B672       38      424       0
                text136                            ACF2     ACF2       62      424       0
                text135                            B586     B586       3C      424       0
                text134                            B7B6     B7B6       32      424       0
                text133                            8EC8     8EC8       C6      424       0
                text132                            9638     9638       B2      424       0
                text131                            BA4E     BA4E       28      424       0
                text130                            83A4     83A4       EA      424       0
                text129                            ADB6     ADB6       5E      424       0
                text128                            BC40     BC40        6      424       0
                text127                            A590     A590       7A      424       0
                text126                            B452     B452       42      424       0
                text125                            BB2C     BB2C       1E      424       0
                text124                            76DC     76DC      106      424       0
                text123                            9AF8     9AF8       A6      424       0
                text122                            A954     A954       6C      424       0
                text121                            A776     A776       78      424       0
                text120                            3694     3694      394      424       0
                text119                            8E00     8E00       C8      424       0
                text118                            8D38     8D38       C8      424       0
                text117                            7CEC     7CEC       FE      424       0
                text116                            9350     9350       BC      424       0
                text115                            BBD6     BBD6       14      424       0
                text114                            7118     7118      132      424       0
                text113                            8578     8578       E8      424       0
                text112                            A070     A070       92      424       0
                text111                            B54A     B54A       3C      424       0
                text110                            3DA2     3DA2      370      424       0
                text109                            B63A     B63A       38      424       0
                text108                            4AD8     4AD8      316      424       0
                text107                            9E1E     9E1E       96      424       0
                text106                            B9F6     B9F6       2E      424       0
                text105                            8B94     8B94       D6      424       0
                text104                            32E2     32E2      3B2      424       0
                text103                            B338     B338       4C      424       0
                text102                            890C     890C       DA      424       0
                text101                            B40E     B40E       44      424       0
                text100                            77E2     77E2      104      424       0
                text99                             AF2A     AF2A       5C      424       0
                text98                             BC3A     BC3A        6      424       0
                text97                             9C42     9C42       A2      424       0
                text96                             80D6     80D6       F4      424       0
                text95                             BBFC     BBFC       10      424       0
                text94                             B0D6     B0D6       4E      424       0
                text93                             BA24     BA24       2A      424       0
                text92                             A102     A102       88      424       0
                text91                             446C     446C      34E      424       0
                text90                             B96A     B96A       30      424       0
                text89                             3A28     3A28      37A      424       0
                text88                             5888     5888      246      424       0
                text87                             677A     677A      1A0      424       0
                text86                             BC4E     BC4E        4      424       0
                text85                             BC4A     BC4A        4      424       0
                text84                             B93A     B93A       30      424       0
                text83                             9CE4     9CE4       A0      424       0
                text82                             BB7C     BB7C       18      424       0
                text81                             9580     9580       B8      424       0
                text80                             B90A     B90A       30      424       0
                text79                             91D4     91D4       BE      424       0
                text78                             724A     724A      12C      424       0
                text77                             B034     B034       52      424       0
                text76                             96EA     96EA       B0      424       0
                text75                             A6FE     A6FE       78      424       0
                text74                             6432     6432      1A6      424       0
                text73                             5EDE     5EDE      1FC      424       0
                text72                             9B9E     9B9E       A4      424       0
                text71                             BC32     BC32        8      424       0
                text70                             BC2A     BC2A        8      424       0
                text69                             B8DA     B8DA       30      424       0
                text68                             B50E     B50E       3C      424       0
                text67                             2B3C     2B3C      3E8      424       0
                text66                             9FDE     9FDE       92      424       0
                text65                             A210     A210       84      424       0
                text64                             6EA0     6EA0      13C      424       0
                text63                             B8AA     B8AA       30      424       0
                text62                             B87A     B87A       30      424       0
                text61                             AC90     AC90       62      424       0
                text60                             B2EC     B2EC       4C      424       0
                text59                             B2A0     B2A0       4C      424       0
                text58                             B254     B254       4C      424       0
                text57                             B208     B208       4C      424       0
                text56                             B3CA     B3CA       44      424       0
                text55                             B1BC     B1BC       4C      424       0
                text54                             B170     B170       4C      424       0
                text53                             B782     B782       34      424       0
                text52                             BAC4     BAC4       26      424       0
                text51                             BA9E     BA9E       26      424       0
                text50                             AB62     AB62       66      424       0
                text49                             BC20     BC20        A      424       0
                text48                             7AEC     7AEC      102      424       0
                text47                             9F4A     9F4A       94      424       0
                text46                             BC16     BC16        A      424       0
                text45                             7BEE     7BEE       FE      424       0
                text44                             99A4     99A4       AC      424       0
                text43                             A514     A514       7C      424       0
                text42                             B4D2     B4D2       3C      424       0
                text41                             79EA     79EA      102      424       0
                text40                             9D84     9D84       9A      424       0
                text39                             AECE     AECE       5C      424       0
                text38                             8F8E     8F8E       C4      424       0
                text37                             BC46     BC46        4      424       0
                text36                             BAEA     BAEA       22      424       0
                text35                             882E     882E       DE      424       0
                text34                             B718     B718       36      424       0
                text33                             A18A     A18A       86      424       0
                text32                             BC0C     BC0C        A      424       0
                text31                             A498     A498       7C      424       0
                text30                             BB4A     BB4A       1A      424       0
                text29                             B84A     B84A       30      424       0
                text28                             A41A     A41A       7E      424       0
                text27                             6A98     6A98      170      424       0
                text26                             7EE6     7EE6       F8      424       0
                text25                             B124     B124       4C      424       0
                text24                             A294     A294       82      424       0
                text23                             150E     150E      882      424       0
                text22                             9052     9052       C2      424       0
                text21                             539E     539E      294      424       0
                text20                             47BA     47BA      31E      424       0
                text19                              850      850      CBE      424       0
                text18                             2F24     2F24      3BE      424       0
                text17                             1D90     1D90      564      424       0
                text16                             89E6     89E6       D8      424       0
                text15                             22F4     22F4      426      424       0
                text14                             B086     B086       50      424       0
                text13                             FFFA     FFFA        6     77C0       0
                text12                             B81A     B81A       30      424       0
                text11                             B74E     B74E       34      424       0
                text10                             B9C8     B9C8       2E      424       0
                text9                              6D58     6D58      148      424       0
                text8                              B99A     B99A       2E      424       0
                text7                              BB64     BB64       18      424       0
                text6                              5CDA     5CDA      204      424       0
                text5                              7DEA     7DEA       FC      424       0
                text4                              8ABE     8ABE       D6      424       0
                text3                              B6E2     B6E2       36      424       0
                text2                              BBEA     BBEA       12      424       0
                text1                              98F8     98F8       AC      424       0
                text0                              AE72     AE72       5C      424       0
                cstackCOMRAM                         2B       2B       2A        1       1
                cstackBANK0                          60       60       49       60       1
                cstackBANK1                         1BD      1BD       42      100       1
                cstackBANK2                         2F0      2F0        C      200       1
                cstackBANK4                         400      400       29      400       1
                bssBIGRAM                           429      429      3A0      429       1
                bssBANK3                            300      300      100      300       1
                bssBANK2                            200      200       F0      200       1
                bssBANK1                            100      100       BD      100       1
                bssBANK0                             A9       A9       2A       60       1
                bssCOMRAM                             1        1       2A        1       1
                cinit                              AC2E     AC2E       62      424       0
                _name_text                          848      848        8      424       0
                _paramBlock_text                    820      820       20      410       0
                _eventTable_text                   EF80     EF80      FF0     77C0       0

TOTAL           Name                               Link     Load   Length     Space
        CLASS   CODE           
                intcodelo                            18       18        4         0
                intcode                               8        8        4         0
                init                                 1C       1C        4         0
                reset_vec                             0        0        4         0
                text202                            BC5C     BC5C        2         0
                text201                            94C6     94C6       BA         0
                text200                            8748     8748       E6         0
                text199                            A684     A684       7A         0
                text198                            74A2     74A2      128         0
                text197                            BBC0     BBC0       16         0
                text196                            6288     6288      1AA         0
                text195                            B6AA     B6AA       38         0
                text194                            984A     984A       AE         0
                text193                            50DC     50DC      2C2         0
                text192                            A398     A398       82         0
                text191                            AAFA     AAFA       68         0
                text190                            B5FE     B5FE       3C         0
                text189                            848E     848E       EA         0
                text187                            BC5A     BC5A        2         0
                text186                            9292     9292       BE         0
                text185                            8660     8660       E8         0
                text184                            A866     A866       78         0
                text183                            7376     7376      12C         0
                text182                            BBAA     BBAA       16         0
                text181                            60DA     60DA      1AE         0
                text180                            B5C2     B5C2       3C         0
                text179                            979A     979A       B0         0
                text178                            4DEE     4DEE      2EE         0
                text177                            A316     A316       82         0
                text176                            AA92     AA92       68         0
                text175                            BA76     BA76       28         0
                text174                            B384     B384       46         0
                text173                            81CA     81CA       EE         0
                mainSec                            82B8     82B8       EC         0
                text171                            BC58     BC58        2         0
                text170                            BC56     BC56        2         0
                text169                            B7E8     B7E8       32         0
                text168                            AF86     AF86       58         0
                text167                            A8DE     A8DE       76         0
                text166                            AFDE     AFDE       56         0
                text165                            5ACE     5ACE      20C         0
                text164                            940C     940C       BA         0
                text163                            BB94     BB94       16         0
                text162                            9EB4     9EB4       96         0
                text161                            BC52     BC52        4         0
                text160                            A9C0     A9C0       6A         0
                text159                            9A50     9A50       A8         0
                text158                            AA2A     AA2A       68         0
                text157                            75CA     75CA      112         0
                text156                            AE14     AE14       5E         0
                text155                            4112     4112      35A         0
                text154                            A60A     A60A       7A         0
                text153                            BB0C     BB0C       20         0
                text152                            8C6A     8C6A       CE         0
                text151                            9114     9114       C0         0
                text150                            ABC8     ABC8       66         0
                text149                            6C08     6C08      150         0
                text148                            65D8     65D8      1A2         0
                text147                            691A     691A      17E         0
                text146                            6FDC     6FDC      13C         0
                text145                            A7EE     A7EE       78         0
                text144                            271A     271A      422         0
                text143                            5632     5632      256         0
                text142                            7FDE     7FDE       F8         0
                text141                            78E6     78E6      104         0
                text140                            B494     B494       3E         0
                text139                            FF70     FF70       8A         0
                text138                            AD54     AD54       62         0
                text137                            B672     B672       38         0
                text136                            ACF2     ACF2       62         0
                text135                            B586     B586       3C         0
                text134                            B7B6     B7B6       32         0
                text133                            8EC8     8EC8       C6         0
                text132                            9638     9638       B2         0
                text131                            BA4E     BA4E       28         0
                text130                            83A4     83A4       EA         0
                text129                            ADB6     ADB6       5E         0
                text128                            BC40     BC40        6         0
                text127                            A590     A590       7A         0
                text126                            B452     B452       42         0
                text125                            BB2C     BB2C       1E         0
                text124                            76DC     76DC      106         0
                text123                            9AF8     9AF8       A6         0
                text122                            A954     A954       6C         0
                text121                            A776     A776       78         0
                text120                            3694     3694      394         0
                text119                            8E00     8E00       C8         0
                text118                            8D38     8D38       C8         0
                text117                            7CEC     7CEC       FE         0
                text116                            9350     9350       BC         0
                text115                            BBD6     BBD6       14         0
                text114                            7118     7118      132         0
                text113                            8578     8578       E8         0
                text112                            A070     A070       92         0
                text111                            B54A     B54A       3C         0
                text110                            3DA2     3DA2      370         0
                text109                            B63A     B63A       38         0
                text108                            4AD8     4AD8      316         0
                text107                            9E1E     9E1E       96         0
                text106                            B9F6     B9F6       2E         0
                text105                            8B94     8B94       D6         0
                text104                            32E2     32E2      3B2         0
                text103                            B338     B338       4C         0
                text102                            890C     890C       DA         0
                text101                            B40E     B40E       44         0
                text100                            77E2     77E2      104         0
                text99                             AF2A     AF2A       5C         0
                text98                             BC3A     BC3A        6         0
                text97                             9C42     9C42       A2         0
                text96                             80D6     80D6       F4         0
                text95                             BBFC     BBFC       10         0
                text94                             B0D6     B0D6       4E         0
                text93                             BA24     BA24       2A         0
                text92                             A102     A102       88         0
                text91                             446C     446C      34E         0
                text90                             B96A     B96A       30         0
                text89                             3A28     3A28      37A         0
                text88                             5888     5888      246         0
                text87                             677A     677A      1A0         0
                text86                             BC4E     BC4E        4         0
                text85                             BC4A     BC4A        4         0
                text84                             B93A     B93A       30         0
                text83                             9CE4     9CE4       A0         0
                text82                             BB7C     BB7C       18         0
                text81                             9580     9580       B8         0
                text80                             B90A     B90A       30         0
                text79                             91D4     91D4       BE         0
                text78                             724A     724A      12C         0
                text77                             B034     B034       52         0
                text76                             96EA     96EA       B0         0
                text75                             A6FE     A6FE       78         0
                text74                             6432     6432      1A6         0
                text73                             5EDE     5EDE      1FC         0
                text72                             9B9E     9B9E       A4         0
                text71                             BC32     BC32        8         0
                text70                             BC2A     BC2A        8         0
                text69                             B8DA     B8DA       30         0
                text68                             B50E     B50E       3C         0
                text67                             2B3C     2B3C      3E8         0
                text66                             9FDE     9FDE       92         0
                text65                             A210     A210       84         0
                text64                             6EA0     6EA0      13C         0
                text63                             B8AA     B8AA       30         0
                text62                             B87A     B87A       30         0
                text61                             AC90     AC90       62         0
                text60                             B2EC     B2EC       4C         0
                text59                             B2A0     B2A0       4C         0
                text58                             B254     B254       4C         0
                text57                             B208     B208       4C         0
                text56                             B3CA     B3CA       44         0
                text55                             B1BC     B1BC       4C         0
                text54                             B170     B170       4C         0
                text53                             B782     B782       34         0
                text52                             BAC4     BAC4       26         0
                text51                             BA9E     BA9E       26         0
                text50                             AB62     AB62       66         0
                text49                             BC20     BC20        A         0
                text48                             7AEC     7AEC      102         0
                text47                             9F4A     9F4A       94         0
                text46                             BC16     BC16        A         0
                text45                             7BEE     7BEE       FE         0
                text44                             99A4     99A4       AC         0
                text43                             A514     A514       7C         0
                text42                             B4D2     B4D2       3C         0
                text41                             79EA     79EA      102         0
                text40                             9D84     9D84       9A         0
                text39                             AECE     AECE       5C         0
                text38                             8F8E     8F8E       C4         0
                text37                             BC46     BC46        4         0
                text36                             BAEA     BAEA       22         0
                text35                             882E     882E       DE         0
                text34                             B718     B718       36         0
                text33                             A18A     A18A       86         0
                text32                             BC0C     BC0C        A         0
                text31                             A498     A498       7C         0
                text30                             BB4A     BB4A       1A         0
                text29                             B84A     B84A       30         0
                text28                             A41A     A41A       7E         0
                text27                             6A98     6A98      170         0
                text26                             7EE6     7EE6       F8         0
                text25                             B124     B124       4C         0
                text24                             A294     A294       82         0
                text23                             150E     150E      882         0
                text22                             9052     9052       C2         0
                text21                             539E     539E      294         0
                text20                             47BA     47BA      31E         0
                text19                              850      850      CBE         0
                text18                             2F24     2F24      3BE         0
                text17                             1D90     1D90      564         0
                text16                             89E6     89E6       D8         0
                text15                             22F4     22F4      426         0
                text14                             B086     B086       50         0
                text13                             FFFA     FFFA        6         0
                text12                             B81A     B81A       30         0
                text11                             B74E     B74E       34         0
                text10                             B9C8     B9C8       2E         0
                text9                              6D58     6D58      148         0
                text8                              B99A     B99A       2E         0
                text7                              BB64     BB64       18         0
                text6                              5CDA     5CDA      204         0
                text5                              7DEA     7DEA       FC         0
                text4                              8ABE     8ABE       D6         0
                text3                              B6E2     B6E2       36         0
                text2                              BBEA     BBEA       12         0
                text1                              98F8     98F8       AC         0
                text0                              AE72     AE72       5C         0
                cinit                              AC2E     AC2E       62         0
                _name_text                          848      848        8         0
                _paramBlock_text                    820      820       20         0
                _eventTable_text                   EF80     EF80      FF0         0

        CLASS   CONST          

        CLASS   SMALLCONST     

        CLASS   MEDIUMCONST    
                mediumconst                        ED34     ED34      24C         0

        CLASS   COMRAM         
                temp                                 55       55        1         1
                cstackCOMRAM                         2B       2B       2A         1
                bssCOMRAM                             1        1       2A         1

        CLASS   ABS1           

        CLASS   BIGRAM         
                bssBIGRAM                           429      429      3A0         1

        CLASS   RAM            

        CLASS   BANK0          
                cstackBANK0                          60       60       49         1
                bssBANK0                             A9       A9       2A         1

        CLASS   BANK1          
                cstackBANK1                         1BD      1BD       42         1
                bssBANK1                            100      100       BD         1

        CLASS   BANK2          
                cstackBANK2                         2F0      2F0        C         1
                bssBANK2                            200      200       F0         1

        CLASS   BANK3          
                bssBANK3                            300      300      100         1

        CLASS   BANK4          
                cstackBANK4                         400      400       29         1

        CLASS   BANK5          

        CLASS   BANK6          

        CLASS   BANK7          

        CLASS   BANK8          

        CLASS   BANK9          

        CLASS   BANK10         

        CLASS   BANK11         

        CLASS   BANK12         

        CLASS   BANK13         

        CLASS   BANK14         

        CLASS   SFR            

        CLASS   BIGSFR         

        CLASS   CONFIG         
                config                           300000   300000        E         4

        CLASS   IDLOC          

        CLASS   EEDATA         
                eeprom_data                      F00000   F00000      400         0

        CLASS   FARRAM         

        CLASS   HEAP           

        CLASS   STACK          



SEGMENTS        Name                           Load    Length   Top    Selector   Space  Class

                reset_vec                      000000  000004  000004         0       0  CODE    
                bssCOMRAM                      000001  000055  000056         1       1  COMRAM  
                intcode                        000008  000004  00000C         4       0  CODE    
                intcodelo                      000018  000008  000020         C       0  CODE    
                cstackBANK0                    000060  000073  0000D3        60       1  BANK0   
                bssBANK1                       000100  0000FF  0001FF       100       1  BANK1   
                bssBANK2                       000200  0000FC  0002FC       200       1  BANK2   
                bssBANK3                       000300  000100  000400       300       1  BANK3   
                cstackBANK4                    000400  000029  000429       400       1  BANK4   
                bssBIGRAM                      000429  0003A0  0007C9       429       1  BIGRAM  
                _paramBlock_text               000820  000020  000840       410       0  CODE    
                _name_text                     000848  00B416  00BC5E       424       0  CODE    
                mediumconst                    00ED34  00024C  00EF80      769A       0  MEDIUMCO
                _eventTable_text               00EF80  001080  010000      77C0       0  CODE    
                eeprom_data                    F00000  000400  F00400    F00000       0  EEDATA  


UNUSED ADDRESS RANGES

        Name                Unused          Largest block    Delta
        BANK0            0000D3-0000FF               2D
        BANK1            0001FF-0001FF                1
        BANK10           000A00-000AFF              100
        BANK11           000B00-000BFF              100
        BANK12           000C00-000CFF              100
        BANK13           000D00-000DFF              100
        BANK14           000E00-000E40               41
        BANK2            0002FC-0002FF                4
        BANK7            0007C9-0007FF               37
        BANK8            000800-0008FF              100
        BANK9            000900-0009FF              100
        BIGRAM           000056-00005F                A
                         0000D3-0000FF               2D
                         0001FF-0001FF                1
                         0002FC-0002FF                4
                         0007C9-000E40              678
        BIGSFR           000E41-000FFF              1BF
        CODE             000004-000007                4
                         00000C-000017                C
                         000020-00081F              800
                         000840-000847                8
                         00BC5E-00ED33             30D6
        COMRAM           000056-00005F                A
        CONST            000004-000007                4
                         00000C-000017                C
                         000020-00081F              800
                         000840-000847                8
                         00BC5E-00ED33             30D6
        IDLOC            200000-200007                8
        MEDIUMCONST      00BC5E-00ED33             30D6
        RAM              0000D3-0000FF               2D
                         0001FF-0001FF                1
                         0002FC-0002FF                4
                         0007C9-000E40              100
        SFR              000E41-000FFF               BF
        SMALLCONST       00BC5E-00ED33              100

                                  Symbol Table

?___awdiv                                 cstackBANK0      00008D
?___awmod                                 cstackBANK0      00008D
?___lldiv                                 cstackBANK0      000097
?___lmul                                  cstackBANK0      000091
?___wmul                                  cstackBANK0      00008D
?_ackGetDiagnostic                        cstackBANK0      00008D
?_canGetDiagnostic                        cstackBANK0      00008D
?_consumer2QGetDiagnostic                 cstackBANK0      00008D
?_findService                             cstackBANK0      00008D
?_getBufferPointer                        cstackBANK0      00008D
?_getEN                                   cstackBANK0      000097
?_getEv                                   cstackBANK0      00009D
?_getNN                                   cstackBANK0      000097
?_getNV                                   cstackBANK0      00008D
?_getNextWriteMessage                     cstackBANK0      00008D
?_getTwoAction                            cstackBANK0      000091
?_mnsGetDiagnostic                        cstackBANK0      00008D
?_nvGetDiagnostic                         cstackBANK0      00008D
?_peekTwoActionQueue                      cstackBANK0      00008D
?_pop                                     cstackBANK0      00008D
?_producerGetDiagnostic                   cstackBANK0      00008D
?_readNVM                                 cstackBANK0      000091
?_teachGetDiagnostic                      cstackBANK0      00008D
?_tickGet                                 cstackBANK0      00008D
?i1_getBufferPointer                      cstackBANK0      000060
?i1_getNextWriteMessage                   cstackBANK0      000060
?i1_pop                                   cstackBANK0      000060
?i1_tickGet                               cstackBANK0      000060
?i2_getBufferPointer                      cstackCOMRAM     00002B
?i2_getNextWriteMessage                   cstackCOMRAM     00002B
?i2_pop                                   cstackCOMRAM     00002B
?i2_tickGet                               cstackCOMRAM     00002B
APP_addEvent@evNum                        cstackBANK1      0001ED
APP_addEvent@evVal                        cstackBANK1      0001EE
APP_addEvent@eventNumber                  cstackBANK1      0001EB
APP_addEvent@forceOwnNN                   cstackBANK1      0001EF
APP_addEvent@nodeNumber                   cstackBANK1      0001E9
APP_factoryReset@io                       cstackBANK1      0001F0
APP_nvDefault@index                       cstackBANK0      000099
APP_nvValidate@index                      cstackBANK0      000094
APP_nvValidate@value                      cstackBANK0      000093
APP_nvValueChanged@index                  cstackBANK1      0001F3
APP_nvValueChanged@io                     cstackBANK1      0001F2
APP_nvValueChanged@oldValue               cstackBANK1      0001F1
APP_nvValueChanged@value                  cstackBANK1      0001F0
APP_postProcessMessage@m                  cstackBANK0      00008D
APP_preProcessMessage@m                   cstackBANK0      00008D
EEPROM_Read@index                         cstackBANK0      00008D
EEPROM_Write@index                        cstackBANK0      00008F
EEPROM_Write@interruptEnabled             cstackBANK0      000092
EEPROM_Write@value                        cstackBANK0      000091
FLASH_Read@address                        cstackBANK0      00008D
FLASH_Write@index                         cstackBANK0      000090
FLASH_Write@value                         cstackBANK0      000092
_ANCON0                                   (abs)            000F5D
_ANCON1                                   (abs)            000F5C
_APP_GetEventState                        text37           00BC46
_APP_addEvent                             text36           00BAEA
_APP_factoryReset                         text134          00B7B6
_APP_highIsr                              text202          00BC5C
_APP_isSuitableTimeToWriteFlash           text161          00BC52
_APP_lowIsr                               text187          00BC5A
_APP_nvDefault                            text130          0083A4
_APP_nvValidate                           text50           00AB62
_APP_nvValueChanged                       text48           007AEC
_APP_postProcessMessage                   text86           00BC4E
_APP_preProcessMessage                    text85           00BC4A
_APP_testMode                             text171          00BC58
_B0CON                                    (abs)            000E80
_B1CON                                    (abs)            000E90
_B2CON                                    (abs)            000EA0
_B3CON                                    (abs)            000EB0
_B4CON                                    (abs)            000EC0
_B5CON                                    (abs)            000ED0
_BIE0                                     (abs)            000E7E
_BRGCON1                                  (abs)            000E43
_BRGCON2                                  (abs)            000E44
_BRGCON3                                  (abs)            000E45
_BSEL0                                    (abs)            000E7D
_CANCON                                   (abs)            000F6F
_CANSTATbits                              (abs)            000F6E
_CIOCON                                   (abs)            000F70
_COMSTATbits                              (abs)            000F71
_ECANCON                                  (abs)            000F72
_EEADR                                    (abs)            000F74
_EEADRH                                   (abs)            000F75
_EECON1                                   (abs)            000F7F
_EECON1bits                               (abs)            000F7F
_EECON2                                   (abs)            000F7E
_EEDATA                                   (abs)            000F73
_EEIF                                     (abs)            007DBE
_EEPROM_Read                              text169          00B7E8
_EEPROM_Write                             text162          009EB4
_FLASH_Read                               text168          00AF86
_FLASH_Write                              text157          0075CA
_INTCON2bits                              (abs)            000FF1
_INTCONbits                               (abs)            000FF2
_IPR5                                     (abs)            000F78
_LATA                                     (abs)            000F89
_LATB                                     (abs)            000F8A
_LATBbits                                 (abs)            000F8A
_LATC                                     (abs)            000F8B
_MSEL0                                    (abs)            000E79
_MSEL1                                    (abs)            000E7A
_MSEL2                                    (abs)            000E7B
_MSEL3                                    (abs)            000E7C
_OSCTUNEbits                              (abs)            000F9B
_PIE5bits                                 (abs)            000F76
_PIR5bits                                 (abs)            000F77
_PORTA                                    (abs)            000F80
_PORTAbits                                (abs)            000F80
_PORTB                                    (abs)            000F81
_PORTC                                    (abs)            000F82
_RCONbits                                 (abs)            000FD0
_RXB0CON                                  (abs)            000F60
_RXB1CON                                  (abs)            000F30
_RXF0SIDL                                 (abs)            000EE1
_RXFBCON0                                 (abs)            000E71
_RXFBCON1                                 (abs)            000E72
_RXFBCON2                                 (abs)            000E73
_RXFBCON3                                 (abs)            000E74
_RXFBCON4                                 (abs)            000E75
_RXFBCON5                                 (abs)            000E76
_RXFBCON6                                 (abs)            000E77
_RXFBCON7                                 (abs)            000E78
_RXM0EIDH                                 (abs)            000EFA
_RXM0EIDL                                 (abs)            000EFB
_RXM0SIDH                                 (abs)            000EF8
_RXM0SIDL                                 (abs)            000EF9
_RXM1EIDH                                 (abs)            000EFE
_RXM1EIDL                                 (abs)            000EFF
_RXM1SIDH                                 (abs)            000EFC
_RXM1SIDL                                 (abs)            000EFD
_T0CON                                    (abs)            000FD5
_T0CONbits                                (abs)            000FD5
_TABLAT                                   (abs)            000FF5
_TBLPTR                                   (abs)            000FF6
_TBLPTRU                                  (abs)            000FF8
_TMR0H                                    (abs)            000FD7
_TMR0L                                    (abs)            000FD6
_TRISA                                    (abs)            000F92
_TRISAbits                                (abs)            000F92
_TRISB                                    (abs)            000F93
_TRISBbits                                (abs)            000F93
_TRISC                                    (abs)            000F94
_TXB0CON                                  (abs)            000F20
_TXB0CONbits                              (abs)            000F20
_TXB0D0                                   (abs)            000F26
_TXB0D1                                   (abs)            000F27
_TXB0D2                                   (abs)            000F28
_TXB0D3                                   (abs)            000F29
_TXB0D4                                   (abs)            000F2A
_TXB0D5                                   (abs)            000F2B
_TXB0D6                                   (abs)            000F2C
_TXB0D7                                   (abs)            000F2D
_TXB0DLC                                  (abs)            000F25
_TXB0SIDH                                 (abs)            000F21
_TXB0SIDL                                 (abs)            000F22
_TXB1CON                                  (abs)            000F10
_TXB1CONbits                              (abs)            000F10
_TXB1DLC                                  (abs)            000F15
_TXB1SIDH                                 (abs)            000F11
_TXB1SIDL                                 (abs)            000F12
_TXB2CON                                  (abs)            000F00
_TXB2CONbits                              (abs)            000F00
_TXB2DLC                                  (abs)            000F05
_TXB2SIDH                                 (abs)            000F01
_TXB2SIDL                                 (abs)            000F02
_TXBIEbits                                (abs)            000E7F
_WPUB                                     (abs)            000F5B
__HRAM                                    (abs)            000000
__H__absolute__                           __absolute__     000000
__H_eventTable_text                       _eventTable_text 00FF70
__H_name_text                             _name_text       000850
__H_paramBlock_text                       _paramBlock_text 000840
__Habs1                                   abs1             000000
__Hbank0                                  bank0            000000
__Hbank1                                  bank1            000000
__Hbank10                                 bank10           000000
__Hbank11                                 bank11           000000
__Hbank12                                 bank12           000000
__Hbank13                                 bank13           000000
__Hbank14                                 bank14           000000
__Hbank2                                  bank2            000000
__Hbank3                                  bank3            000000
__Hbank4                                  bank4            000000
__Hbank5                                  bank5            000000
__Hbank6                                  bank6            000000
__Hbank7                                  bank7            000000
__Hbank8                                  bank8            000000
__Hbank9                                  bank9            000000
__Hbigbss                                 bigbss           000000
__Hbigdata                                bigdata          000000
__Hbigram                                 bigram           000000
__Hbigsfr                                 bigsfr           000000
__Hbss                                    bss              000000
__HbssBANK0                               bssBANK0         000000
__HbssBANK1                               bssBANK1         000000
__HbssBANK2                               bssBANK2         000000
__HbssBANK3                               bssBANK3         000000
__HbssBIGRAM                              bssBIGRAM        000000
__HbssCOMRAM                              bssCOMRAM        000000
__Hcinit                                  cinit            000000
__Hclrtext                                clrtext          000000
__Hcomram                                 comram           000000
__Hconfig                                 config           30000E
__Hconst                                  const            000000
__HcstackBANK0                            cstackBANK0      000000
__HcstackBANK1                            cstackBANK1      000000
__HcstackBANK2                            cstackBANK2      000000
__HcstackBANK4                            cstackBANK4      000000
__HcstackCOMRAM                           cstackCOMRAM     000000
__Hdata                                   data             000000
__Heeprom_data                            eeprom_data      F00400
__Hfarbss                                 farbss           000000
__Hfardata                                fardata          000000
__Hheap                                   heap             000000
__Hibigdata                               ibigdata         000000
__Hidata                                  idata            000000
__Hidloc                                  idloc            000000
__Hifardata                               ifardata         000000
__Hinit                                   init             000020
__Hintcode                                intcode          00000C
__Hintcode_body                           intcode_body     000000
__Hintcodelo                              intcodelo        00001C
__Hintentry                               intentry         000000
__Hintret                                 intret           000000
__Hintsave_regs                           intsave_regs     000000
__Hirdata                                 irdata           000000
__HmainSec                                mainSec          000000
__Hmediumconst                            mediumconst      00EF80
__HnvFARRAM                               nvFARRAM         000000
__Hnvbit                                  nvbit            000000
__Hnvrram                                 nvrram           000000
__Hparam                                  rparam           000000
__Hpowerup                                powerup          00001C
__Hram                                    ram              000000
__Hramtop                                 ramtop           000F00
__Hrbit                                   rbit             000000
__Hrbss                                   rbss             000000
__Hrdata                                  rdata            000000
__Hreset_vec                              reset_vec        000004
__Hrparam                                 rparam           000000
__Hsfr                                    sfr              000000
__Hsivt_hi                                sivt_hi          000000
__Hsivt_lo                                sivt_lo          000000
__Hsmallconst                             smallconst       000000
__Hspace_0                                (abs)            F00400
__Hspace_1                                (abs)            0007C9
__Hspace_2                                (abs)            000000
__Hspace_4                                (abs)            60000E
__Hstack                                  stack            000000
__Hstruct                                 struct           000000
__Htemp                                   temp             000056
__Htext                                   text             000000
__Htext0                                  text0            000000
__Htext1                                  text1            000000
__Htext10                                 text10           000000
__Htext100                                text100          000000
__Htext101                                text101          000000
__Htext102                                text102          000000
__Htext103                                text103          000000
__Htext104                                text104          000000
__Htext105                                text105          000000
__Htext106                                text106          000000
__Htext107                                text107          000000
__Htext108                                text108          000000
__Htext109                                text109          000000
__Htext11                                 text11           000000
__Htext110                                text110          000000
__Htext111                                text111          000000
__Htext112                                text112          000000
__Htext113                                text113          000000
__Htext114                                text114          000000
__Htext115                                text115          000000
__Htext116                                text116          000000
__Htext117                                text117          000000
__Htext118                                text118          000000
__Htext119                                text119          000000
__Htext12                                 text12           000000
__Htext120                                text120          000000
__Htext121                                text121          000000
__Htext122                                text122          000000
__Htext123                                text123          000000
__Htext124                                text124          000000
__Htext125                                text125          000000
__Htext126                                text126          000000
__Htext127                                text127          000000
__Htext128                                text128          000000
__Htext129                                text129          000000
__Htext13                                 text13           000000
__Htext130                                text130          000000
__Htext131                                text131          000000
__Htext132                                text132          000000
__Htext133                                text133          000000
__Htext134                                text134          000000
__Htext135                                text135          000000
__Htext136                                text136          000000
__Htext137                                text137          000000
__Htext138                                text138          000000
__Htext139                                text139          000000
__Htext14                                 text14           000000
__Htext140                                text140          000000
__Htext141                                text141          000000
__Htext142                                text142          000000
__Htext143                                text143          000000
__Htext144                                text144          000000
__Htext145                                text145          000000
__Htext146                                text146          000000
__Htext147                                text147          000000
__Htext148                                text148          000000
__Htext149                                text149          000000
__Htext15                                 text15           000000
__Htext150                                text150          000000
__Htext151                                text151          000000
__Htext152                                text152          000000
__Htext153                                text153          000000
__Htext154                                text154          000000
__Htext155                                text155          000000
__Htext156                                text156          000000
__Htext157                                text157          000000
__Htext158                                text158          000000
__Htext159                                text159          000000
__Htext16                                 text16           000000
__Htext160                                text160          000000
__Htext161                                text161          000000
__Htext162                                text162          000000
__Htext163                                text163          000000
__Htext164                                text164          000000
__Htext165                                text165          000000
__Htext166                                text166          000000
__Htext167                                text167          000000
__Htext168                                text168          000000
__Htext169                                text169          000000
__Htext17                                 text17           000000
__Htext170                                text170          000000
__Htext171                                text171          000000
__Htext173                                text173          000000
__Htext174                                text174          000000
__Htext175                                text175          000000
__Htext176                                text176          000000
__Htext177                                text177          000000
__Htext178                                text178          000000
__Htext179                                text179          000000
__Htext18                                 text18           000000
__Htext180                                text180          000000
__Htext181                                text181          000000
__Htext182                                text182          000000
__Htext183                                text183          000000
__Htext184                                text184          000000
__Htext185                                text185          000000
__Htext186                                text186          000000
__Htext187                                text187          000000
__Htext189                                text189          000000
__Htext19                                 text19           000000
__Htext190                                text190          000000
__Htext191                                text191          000000
__Htext192                                text192          000000
__Htext193                                text193          000000
__Htext194                                text194          000000
__Htext195                                text195          000000
__Htext196                                text196          000000
__Htext197                                text197          000000
__Htext198                                text198          000000
__Htext199                                text199          000000
__Htext2                                  text2            000000
__Htext20                                 text20           000000
__Htext200                                text200          000000
__Htext201                                text201          000000
__Htext202                                text202          000000
__Htext21                                 text21           000000
__Htext22                                 text22           000000
__Htext23                                 text23           000000
__Htext24                                 text24           000000
__Htext25                                 text25           000000
__Htext26                                 text26           000000
__Htext27                                 text27           000000
__Htext28                                 text28           000000
__Htext29                                 text29           000000
__Htext3                                  text3            000000
__Htext30                                 text30           000000
__Htext31                                 text31           000000
__Htext32                                 text32           000000
__Htext33                                 text33           000000
__Htext34                                 text34           000000
__Htext35                                 text35           000000
__Htext36                                 text36           000000
__Htext37                                 text37           000000
__Htext38                                 text38           000000
__Htext39                                 text39           000000
__Htext4                                  text4            000000
__Htext40                                 text40           000000
__Htext41                                 text41           000000
__Htext42                                 text42           000000
__Htext43                                 text43           000000
__Htext44                                 text44           000000
__Htext45                                 text45           000000
__Htext46                                 text46           000000
__Htext47                                 text47           000000
__Htext48                                 text48           000000
__Htext49                                 text49           000000
__Htext5                                  text5            000000
__Htext50                                 text50           000000
__Htext51                                 text51           000000
__Htext52                                 text52           000000
__Htext53                                 text53           000000
__Htext54                                 text54           000000
__Htext55                                 text55           000000
__Htext56                                 text56           000000
__Htext57                                 text57           000000
__Htext58                                 text58           000000
__Htext59                                 text59           000000
__Htext6                                  text6            000000
__Htext60                                 text60           000000
__Htext61                                 text61           000000
__Htext62                                 text62           000000
__Htext63                                 text63           000000
__Htext64                                 text64           000000
__Htext65                                 text65           000000
__Htext66                                 text66           000000
__Htext67                                 text67           000000
__Htext68                                 text68           000000
__Htext69                                 text69           000000
__Htext7                                  text7            000000
__Htext70                                 text70           000000
__Htext71                                 text71           000000
__Htext72                                 text72           000000
__Htext73                                 text73           000000
__Htext74                                 text74           000000
__Htext75                                 text75           000000
__Htext76                                 text76           000000
__Htext77                                 text77           000000
__Htext78                                 text78           000000
__Htext79                                 text79           000000
__Htext8                                  text8            000000
__Htext80                                 text80           000000
__Htext81                                 text81           000000
__Htext82                                 text82           000000
__Htext83                                 text83           000000
__Htext84                                 text84           000000
__Htext85                                 text85           000000
__Htext86                                 text86           000000
__Htext87                                 text87           000000
__Htext88                                 text88           000000
__Htext89                                 text89           000000
__Htext9                                  text9            000000
__Htext90                                 text90           000000
__Htext91                                 text91           000000
__Htext92                                 text92           000000
__Htext93                                 text93           000000
__Htext94                                 text94           000000
__Htext95                                 text95           000000
__Htext96                                 text96           000000
__Htext97                                 text97           000000
__Htext98                                 text98           000000
__Htext99                                 text99           000000
__LRAM                                    (abs)            000001
__L__absolute__                           __absolute__     000000
__L_eventTable_text                       _eventTable_text 00EF80
__L_name_text                             _name_text       000848
__L_paramBlock_text                       _paramBlock_text 000820
__Labs1                                   abs1             000000
__Lbank0                                  bank0            000000
__Lbank1                                  bank1            000000
__Lbank10                                 bank10           000000
__Lbank11                                 bank11           000000
__Lbank12                                 bank12           000000
__Lbank13                                 bank13           000000
__Lbank14                                 bank14           000000
__Lbank2                                  bank2            000000
__Lbank3                                  bank3            000000
__Lbank4                                  bank4            000000
__Lbank5                                  bank5            000000
__Lbank6                                  bank6            000000
__Lbank7                                  bank7            000000
__Lbank8                                  bank8            000000
__Lbank9                                  bank9            000000
__Lbigbss                                 bigbss           000000
__Lbigdata                                bigdata          000000
__Lbigram                                 bigram           000000
__Lbigsfr                                 bigsfr           000000
__Lbss                                    bss              000000
__LbssBANK0                               bssBANK0         000000
__LbssBANK1                               bssBANK1         000000
__LbssBANK2                               bssBANK2         000000
__LbssBANK3                               bssBANK3         000000
__LbssBIGRAM                              bssBIGRAM        000000
__LbssCOMRAM                              bssCOMRAM        000000
__Lcinit                                  cinit            000000
__Lclrtext                                clrtext          000000
__Lcomram                                 comram           000000
__Lconfig                                 config           000000
__Lconst                                  const            000000
__LcstackBANK0                            cstackBANK0      000000
__LcstackBANK1                            cstackBANK1      000000
__LcstackBANK2                            cstackBANK2      000000
__LcstackBANK4                            cstackBANK4      000000
__LcstackCOMRAM                           cstackCOMRAM     000000
__Ldata                                   data             000000
__Leeprom_data                            eeprom_data      F00000
__Lfarbss                                 farbss           000000
__Lfardata                                fardata          000000
__Lheap                                   heap             000000
__Libigdata                               ibigdata         000000
__Lidata                                  idata            000000
__Lidloc                                  idloc            000000
__Lifardata                               ifardata         000000
__Linit                                   init             00001C
__Lintcode                                intcode          000008
__Lintcode_body                           intcode_body     000000
__Lintcodelo                              intcodelo        000018
__Lintentry                               intentry         000000
__Lintret                                 intret           000000
__Lintsave_regs                           intsave_regs     000000
__Lirdata                                 irdata           000000
__LmainSec                                mainSec          000000
__Lmediumconst                            mediumconst      00ED34
__LnvFARRAM                               nvFARRAM         000000
__Lnvbit                                  nvbit            000000
__Lnvrram                                 nvrram           000000
__Lparam                                  rparam           000000
__Lpowerup                                powerup          00001C
__Lram                                    ram              000000
__Lramtop                                 ramtop           000F00
__Lrbit                                   rbit             000000
__Lrbss                                   rbss             000000
__Lrdata                                  rdata            000000
__Lreset_vec                              reset_vec        000000
__Lrparam                                 rparam           000000
__Lsfr                                    sfr              000000
__Lsivt_hi                                sivt_hi          000000
__Lsivt_lo                                sivt_lo          000000
__Lsmallconst                             smallconst       000000
__Lspace_0                                (abs)            000000
__Lspace_1                                (abs)            000000
__Lspace_2                                (abs)            000000
__Lspace_4                                (abs)            000000
__Lstack                                  stack            000000
__Lstruct                                 struct           000000
__Ltemp                                   temp             000055
__Ltext                                   text             000000
__Ltext0                                  text0            000000
__Ltext1                                  text1            000000
__Ltext10                                 text10           000000
__Ltext100                                text100          000000
__Ltext101                                text101          000000
__Ltext102                                text102          000000
__Ltext103                                text103          000000
__Ltext104                                text104          000000
__Ltext105                                text105          000000
__Ltext106                                text106          000000
__Ltext107                                text107          000000
__Ltext108                                text108          000000
__Ltext109                                text109          000000
__Ltext11                                 text11           000000
__Ltext110                                text110          000000
__Ltext111                                text111          000000
__Ltext112                                text112          000000
__Ltext113                                text113          000000
__Ltext114                                text114          000000
__Ltext115                                text115          000000
__Ltext116                                text116          000000
__Ltext117                                text117          000000
__Ltext118                                text118          000000
__Ltext119                                text119          000000
__Ltext12                                 text12           000000
__Ltext120                                text120          000000
__Ltext121                                text121          000000
__Ltext122                                text122          000000
__Ltext123                                text123          000000
__Ltext124                                text124          000000
__Ltext125                                text125          000000
__Ltext126                                text126          000000
__Ltext127                                text127          000000
__Ltext128                                text128          000000
__Ltext129                                text129          000000
__Ltext13                                 text13           000000
__Ltext130                                text130          000000
__Ltext131                                text131          000000
__Ltext132                                text132          000000
__Ltext133                                text133          000000
__Ltext134                                text134          000000
__Ltext135                                text135          000000
__Ltext136                                text136          000000
__Ltext137                                text137          000000
__Ltext138                                text138          000000
__Ltext139                                text139          000000
__Ltext14                                 text14           000000
__Ltext140                                text140          000000
__Ltext141                                text141          000000
__Ltext142                                text142          000000
__Ltext143                                text143          000000
__Ltext144                                text144          000000
__Ltext145                                text145          000000
__Ltext146                                text146          000000
__Ltext147                                text147          000000
__Ltext148                                text148          000000
__Ltext149                                text149          000000
__Ltext15                                 text15           000000
__Ltext150                                text150          000000
__Ltext151                                text151          000000
__Ltext152                                text152          000000
__Ltext153                                text153          000000
__Ltext154                                text154          000000
__Ltext155                                text155          000000
__Ltext156                                text156          000000
__Ltext157                                text157          000000
__Ltext158                                text158          000000
__Ltext159                                text159          000000
__Ltext16                                 text16           000000
__Ltext160                                text160          000000
__Ltext161                                text161          000000
__Ltext162                                text162          000000
__Ltext163                                text163          000000
__Ltext164                                text164          000000
__Ltext165                                text165          000000
__Ltext166                                text166          000000
__Ltext167                                text167          000000
__Ltext168                                text168          000000
__Ltext169                                text169          000000
__Ltext17                                 text17           000000
__Ltext170                                text170          000000
__Ltext171                                text171          000000
__Ltext173                                text173          000000
__Ltext174                                text174          000000
__Ltext175                                text175          000000
__Ltext176                                text176          000000
__Ltext177                                text177          000000
__Ltext178                                text178          000000
__Ltext179                                text179          000000
__Ltext18                                 text18           000000
__Ltext180                                text180          000000
__Ltext181                                text181          000000
__Ltext182                                text182          000000
__Ltext183                                text183          000000
__Ltext184                                text184          000000
__Ltext185                                text185          000000
__Ltext186                                text186          000000
__Ltext187                                text187          000000
__Ltext189                                text189          000000
__Ltext19                                 text19           000000
__Ltext190                                text190          000000
__Ltext191                                text191          000000
__Ltext192                                text192          000000
__Ltext193                                text193          000000
__Ltext194                                text194          000000
__Ltext195                                text195          000000
__Ltext196                                text196          000000
__Ltext197                                text197          000000
__Ltext198                                text198          000000
__Ltext199                                text199          000000
__Ltext2                                  text2            000000
__Ltext20                                 text20           000000
__Ltext200                                text200          000000
__Ltext201                                text201          000000
__Ltext202                                text202          000000
__Ltext21                                 text21           000000
__Ltext22                                 text22           000000
__Ltext23                                 text23           000000
__Ltext24                                 text24           000000
__Ltext25                                 text25           000000
__Ltext26                                 text26           000000
__Ltext27                                 text27           000000
__Ltext28                                 text28           000000
__Ltext29                                 text29           000000
__Ltext3                                  text3            000000
__Ltext30                                 text30           000000
__Ltext31                                 text31           000000
__Ltext32                                 text32           000000
__Ltext33                                 text33           000000
__Ltext34                                 text34           000000
__Ltext35                                 text35           000000
__Ltext36                                 text36           000000
__Ltext37                                 text37           000000
__Ltext38                                 text38           000000
__Ltext39                                 text39           000000
__Ltext4                                  text4            000000
__Ltext40                                 text40           000000
__Ltext41                                 text41           000000
__Ltext42                                 text42           000000
__Ltext43                                 text43           000000
__Ltext44                                 text44           000000
__Ltext45                                 text45           000000
__Ltext46                                 text46           000000
__Ltext47                                 text47           000000
__Ltext48                                 text48           000000
__Ltext49                                 text49           000000
__Ltext5                                  text5            000000
__Ltext50                                 text50           000000
__Ltext51                                 text51           000000
__Ltext52                                 text52           000000
__Ltext53                                 text53           000000
__Ltext54                                 text54           000000
__Ltext55                                 text55           000000
__Ltext56                                 text56           000000
__Ltext57                                 text57           000000
__Ltext58                                 text58           000000
__Ltext59                                 text59           000000
__Ltext6                                  text6            000000
__Ltext60                                 text60           000000
__Ltext61                                 text61           000000
__Ltext62                                 text62           000000
__Ltext63                                 text63           000000
__Ltext64                                 text64           000000
__Ltext65                                 text65           000000
__Ltext66                                 text66           000000
__Ltext67                                 text67           000000
__Ltext68                                 text68           000000
__Ltext69                                 text69           000000
__Ltext7                                  text7            000000
__Ltext70                                 text70           000000
__Ltext71                                 text71           000000
__Ltext72                                 text72           000000
__Ltext73                                 text73           000000
__Ltext74                                 text74           000000
__Ltext75                                 text75           000000
__Ltext76                                 text76           000000
__Ltext77                                 text77           000000
__Ltext78                                 text78           000000
__Ltext79                                 text79           000000
__Ltext8                                  text8            000000
__Ltext80                                 text80           000000
__Ltext81                                 text81           000000
__Ltext82                                 text82           000000
__Ltext83                                 text83           000000
__Ltext84                                 text84           000000
__Ltext85                                 text85           000000
__Ltext86                                 text86           000000
__Ltext87                                 text87           000000
__Ltext88                                 text88           000000
__Ltext89                                 text89           000000
__Ltext9                                  text9            000000
__Ltext90                                 text90           000000
__Ltext91                                 text91           000000
__Ltext92                                 text92           000000
__Ltext93                                 text93           000000
__Ltext94                                 text94           000000
__Ltext95                                 text95           000000
__Ltext96                                 text96           000000
__Ltext97                                 text97           000000
__Ltext98                                 text98           000000
__Ltext99                                 text99           000000
__S0                                      (abs)            F00400
__S1                                      (abs)            0007C9
__S4                                      (abs)            000000
__S5                                      (abs)            000000
___awdiv                                  text133          008EC8
___awdiv@counter                          cstackBANK0      000091
___awdiv@dividend                         cstackBANK0      00008D
___awdiv@divisor                          cstackBANK0      00008F
___awdiv@quotient                         cstackBANK0      000093
___awdiv@sign                             cstackBANK0      000092
___awmod                                  text132          009638
___awmod@counter                          cstackBANK0      000091
___awmod@dividend                         cstackBANK0      00008D
___awmod@divisor                          cstackBANK0      00008F
___awmod@sign                             cstackBANK0      000092
___heap_hi                                (abs)            000000
___heap_lo                                (abs)            000000
___inthi_sp                               stack            000000
___inthi_stack_hi                         stack            000000
___inthi_stack_lo                         stack            000000
___intlo_sp                               stack            000000
___intlo_stack_hi                         stack            000000
___intlo_stack_lo                         stack            000000
___lldiv                                  text123          009AF8
___lldiv@counter                          cstackBANK0      0000A3
___lldiv@dividend                         cstackBANK0      000097
___lldiv@divisor                          cstackBANK0      00009B
___lldiv@quotient                         cstackBANK0      00009F
___lmul                                   text122          00A954
___lmul@multiplicand                      cstackBANK0      000095
___lmul@multiplier                        cstackBANK0      000091
___lmul@product                           cstackBANK0      000099
___param_bank                             (abs)            000000
___rparam_used                            (abs)            000001
___sp                                     stack            000000
___stack_hi                               stack            000000
___stack_lo                               stack            000000
___wmul                                   text131          00BA4E
___wmul@multiplicand                      cstackBANK0      00008F
___wmul@multiplier                        cstackBANK0      00008D
___wmul@product                           cstackBANK0      000091
__accesstop                               (abs)            000060
__activetblptr                            (abs)            000003
__end_of_APP_GetEventState                text37           00BC4A
__end_of_APP_addEvent                     text36           00BB0C
__end_of_APP_factoryReset                 text134          00B7E8
__end_of_APP_highIsr                      text202          00BC5E
__end_of_APP_isSuitableTimeToWriteFlash   text161          00BC56
__end_of_APP_lowIsr                       text187          00BC5C
__end_of_APP_nvDefault                    text130          00848E
__end_of_APP_nvValidate                   text50           00ABC8
__end_of_APP_nvValueChanged               text48           007BEE
__end_of_APP_postProcessMessage           text86           00BC52
__end_of_APP_preProcessMessage            text85           00BC4E
__end_of_APP_testMode                     text171          00BC5A
__end_of_EEPROM_Read                      text169          00B81A
__end_of_EEPROM_Write                     text162          009F4A
__end_of_FLASH_Read                       text168          00AFDE
__end_of_FLASH_Write                      text157          0076DC
__end_of___awdiv                          text133          008F8E
__end_of___awmod                          text132          0096EA
__end_of___lldiv                          text123          009B9E
__end_of___lmul                           text122          00A9C0
__end_of___wmul                           text131          00BA76
__end_of__initialization                  cinit            00AC86
__end_of_ackEventCheckLen                 text82           00BB94
__end_of_ackEventProcessMessage           text21           005632
__end_of_ackGetDiagnostic                 text59           00B2EC
__end_of_ackPowerUp                       text10           00B9F6
__end_of_addEvent                         text143          005888
__end_of_alwaysSendInvertedProducedEvent  text101          00B452
__end_of_bootProcessMessage               text22           009114
__end_of_bootService                      mediumconst      00EF7B
__end_of_canEsdData                       text51           00BAC4
__end_of_canFactoryReset                  text125          00BB4A
__end_of_canFillRxFifo                    text181          006288
__end_of_canGetDiagnostic                 text54           00B1BC
__end_of_canIsr                           text174          00B3CA
__end_of_canPowerUp                       text6            005EDE
__end_of_canPri                           mediumconst      00EE8C
__end_of_canProcessMessage                text16           008ABE
__end_of_canReceiveMessage                text73           0060DA
__end_of_canSendMessage                   text108          004DEE
__end_of_canService                       mediumconst      00EEFD
__end_of_canTransport                     mediumconst      00EF7F
__end_of_canTxError                       text177          00A398
__end_of_channelDefaultNVs                mediumconst      00EED9
__end_of_checkCANTimeout                  text176          00AAFA
__end_of_checkLen                         text83           009D84
__end_of_checkPowerOnPb                   text116          00940C
__end_of_checkRemoveTableEntry            text145          00A866
__end_of_checkTxFifo                      text178          0050DC
__end_of_clearAllEvents                   text129          00AE14
__end_of_clearEvents                      text140          00B4D2
__end_of_completed                        text103          00B384
__end_of_configIO                         text155          00446C
__end_of_configs                          mediumconst      00EE75
__end_of_consumer2QGetDiagnostic          text55           00B208
__end_of_consumer2QPowerUp                text7            00BB7C
__end_of_consumer2QProcessMessage         text17           0022F4
__end_of_defaultEvents                    text139          00FFFA
__end_of_defaultNVs                       text136          00AD54
__end_of_deleteActionRange                text142          0080D6
__end_of_deleteHappeningRange             text141          0079EA
__end_of_deleteTwoActionQueue             text102          0089E6
__end_of_doEvlrn                          text35           00890C
__end_of_doEvuln                          text33           00A210
__end_of_doNenrd                          text31           00A514
__end_of_doNerd                           text30           00BB64
__end_of_doNnclr                          text29           00B87A
__end_of_doNnevn                          text28           00A498
__end_of_doReqev                          text27           006C08
__end_of_doReval                          text26           007FDE
__end_of_doRqevn                          text25           00B170
__end_of_doSOD                            text100          0078E6
__end_of_doWait                           text97           009CE4
__end_of_doneTwoAction                    text98           00BC40
__end_of_eraseFlashBlock                  text160          00AA2A
__end_of_eventAckService                  mediumconst      00EF69
__end_of_eventCoeService                  mediumconst      00EF57
__end_of_eventConsumer2QService           mediumconst      00EEEB
__end_of_eventProducerService             mediumconst      00EF45
__end_of_eventTable                       _eventTable_text 00FF70
__end_of_eventTeachService                mediumconst      00EF33
__end_of_evtIdxToTableIndex               text32           00BC16
__end_of_factoryReset                     text124          0077E2
__end_of_factoryResetGlobalEvents         text170          00BC58
__end_of_findEvent                        text151          0091D4
__end_of_findService                      text81           009638
__end_of_findServiceIndex                 text66           00A070
__end_of_flushFlashBlock                  text159          009AF8
__end_of_getBufferPointer                 text79           009292
__end_of_getEN                            text154          00A684
__end_of_getEVs                           text149          006D58
__end_of_getEv                            text148          00677A
__end_of_getHash                          text153          00BB2C
__end_of_getNN                            text152          008D38
__end_of_getNV                            text166          00B034
__end_of_getNextWriteMessage              text113          008660
__end_of_getParameter                     text64           006FDC
__end_of_getParameterFlags                text65           00A294
__end_of_getTwoAction                     text95           00BC0C
__end_of_handleSelfEnumeration            text78           007376
__end_of_have                             text112          00A102
__end_of_highIsr                          text189          008578
__end_of_initInputScan                    text4            008B94
__end_of_initOutputs                      text3            00B718
__end_of_initRomOps                       text115          00BBEA
__end_of_initTicker                       text14           00B0D6
__end_of_initTimedResponse                text13           010000
__end_of_inputScan                        text104          003694
__end_of_isEvent                          text111          00B586
__end_of_isrHigh                          mainSec          0083A4
__end_of_isrLow                           mainSec          00833A
__end_of_leds_poll                        text120          003A28
__end_of_leds_powerUp                     text12           00B84A
__end_of_loadFlashBlock                   text158          00AA92
__end_of_loadNvCache                      text138          00ADB6
__end_of_loop                             text87           00691A
__end_of_lowIsr                           text173          0082B8
__end_of_main                             text0            00AECE
__end_of_memcpy                           text77           00B086
__end_of_mnsFactoryReset                  text127          00A60A
__end_of_mnsGetDiagnostic                 text57           00B254
__end_of_mnsLowIsr                        text175          00BA9E
__end_of_mnsPoll                          text67           002F24
__end_of_mnsPowerUp                       text9            006EA0
__end_of_mnsProcessMessage                text19           00150E
__end_of_mnsService                       mediumconst      00EF21
__end_of_mnsTRallDiagnosticsCallback      text41           007AEC
__end_of_mnsTRrqnpnCallback               text42           00B50E
__end_of_mnsTRserviceDiscoveryCallback    text40           009E1E
__end_of_name                             _name_text       000850
__end_of_needsStarting                    text94           00B124
__end_of_nerdCallback                     text43           00A590
__end_of_numEv                            text45           007CEC
__end_of_nvFactoryReset                   text126          00B494
__end_of_nvGetDiagnostic                  text56           00B40E
__end_of_nvGetESDdata                     text52           00BAEA
__end_of_nvPowerUp                        text8            00B9C8
__end_of_nvProcessMessage                 text18           0032E2
__end_of_nvService                        mediumconst      00EF0F
__end_of_nvTRnvrdCallback                 text39           00AF2A
__end_of_paramBlock                       _paramBlock_text 000840
__end_of_pbDownTimer                      text119          008EC8
__end_of_pbUpTimer                        text118          008E00
__end_of_peekTwoActionQueue               text96           0081CA
__end_of_poll                             text15           00271A
__end_of_pollTimedResponse                text38           009052
__end_of_pop                              text76           00979A
__end_of_popTwoAction                     text99           00AF86
__end_of_powerUp                          text5            007EE6
__end_of_priorities                       mediumconst      00EE35
__end_of_processActions                   text89           003DA2
__end_of_processEnumeration               text74           0065D8
__end_of_processOutputs                   text88           005ACE
__end_of_producerGetDiagnostic            text58           00B2A0
__end_of_producerProcessMessage           text20           004AD8
__end_of_push                             text110          004112
__end_of_pushTwoAction                    text72           009C42
__end_of_quantity                         text109          00B672
__end_of_readInput                        text114          00724A
__end_of_readNVM                          text167          00A954
__end_of_rebuildHashtable                 text147          006A98
__end_of_removeEvent                      text34           00B74E
__end_of_removeTableEntry                 text146          007118
__end_of_reqevCallback                    text44           009A50
__end_of_saveNV                           text137          00B6AA
__end_of_sendInvertedProducedEvent        text92           00A18A
__end_of_sendMessage                      text107          009EB4
__end_of_sendMessage2                     text69           00B90A
__end_of_sendMessage3                     text63           00B8DA
__end_of_sendMessage4                     text106          00BA24
__end_of_sendMessage5                     text84           00B96A
__end_of_sendMessage6                     text62           00B8AA
__end_of_sendMessage7                     text80           00B93A
__end_of_sendProducedEvent                text105          008C6A
__end_of_services                         mediumconst      00EE87
__end_of_setDigitalOutput                 text164          0094C6
__end_of_setExpeditedActions              text71           00BC3A
__end_of_setLEDsByMode                    text68           00B54A
__end_of_setNV                            text47           009FDE
__end_of_setNewCanId                      text75           00A776
__end_of_setNormalActions                 text70           00BC32
__end_of_setOutputPin                     text165          005CDA
__end_of_setOutputState                   text93           00BA4E
__end_of_setTimedResponseDelay            text49           00BC2A
__end_of_setType                          text135          00B5C2
__end_of_setup                            text1            0099A4
__end_of_showStatus                       text117          007DEA
__end_of_startDigitalOutput               text91           0047BA
__end_of_startOutput                      text90           00B99A
__end_of_startTimedResponse               text61           00ACF2
__end_of_tableIndexToEvtIdx               text46           00BC20
__end_of_teachCheckLen                    text24           00A316
__end_of_teachFactoryReset                text128          00BC46
__end_of_teachGetDiagnostic               text60           00B338
__end_of_teachGetESDdata                  text53           00B7B6
__end_of_teachPowerUp                     text11           00B782
__end_of_teachProcessMessage              text23           001D90
__end_of_tickGet                          text121          00A7EE
__end_of_universalEventsInit              text2            00BBFC
__end_of_updateModuleErrorStatus          text163          00BBAA
__end_of_validStart                       text150          00AC2E
__end_of_writeEv                          text144          002B3C
__end_of_writeNVM                         text156          00AE72
__end_ofi1_getBufferPointer               text186          009350
__end_ofi1_getNextWriteMessage            text185          008748
__end_ofi1_handleSelfEnumeration          text183          0074A2
__end_ofi1_isEvent                        text180          00B5FE
__end_ofi1_pop                            text179          00984A
__end_ofi1_tickGet                        text184          00A8DE
__end_ofi1_updateModuleErrorStatus        text182          00BBC0
__end_ofi2_canFillRxFifo                  text196          006432
__end_ofi2_canIsr                         text190          00B63A
__end_ofi2_canTxError                     text192          00A41A
__end_ofi2_checkCANTimeout                text191          00AB62
__end_ofi2_checkTxFifo                    text193          00539E
__end_ofi2_getBufferPointer               text201          009580
__end_ofi2_getNextWriteMessage            text200          00882E
__end_ofi2_handleSelfEnumeration          text198          0075CA
__end_ofi2_isEvent                        text195          00B6E2
__end_ofi2_pop                            text194          0098F8
__end_ofi2_tickGet                        text199          00A6FE
__end_ofi2_updateModuleErrorStatus        text197          00BBD6
__initialization                          cinit            00AC2E
__mediumconst                             mediumconst      00ED34
__p_eventTable_text                       _eventTable_text 00EF80
__p_name_text                             _name_text       000848
__p_paramBlock_text                       _paramBlock_text 000820
__pbssBANK0                               bssBANK0         0000A9
__pbssBANK1                               bssBANK1         000100
__pbssBANK2                               bssBANK2         000200
__pbssBANK3                               bssBANK3         000300
__pbssBIGRAM                              bssBIGRAM        000429
__pbssCOMRAM                              bssCOMRAM        000001
__pcinit                                  cinit            00AC2E
__pcstackBANK0                            cstackBANK0      000060
__pcstackBANK1                            cstackBANK1      0001BD
__pcstackBANK2                            cstackBANK2      0002F0
__pcstackBANK4                            cstackBANK4      000400
__pcstackCOMRAM                           cstackCOMRAM     00002B
__pintcode                                intcode          000008
__pintcodelo                              intcodelo        000018
__pmainSec                                mainSec          0082B8
__pmediumconst                            mediumconst      00ED34
__ptext0                                  text0            00AE72
__ptext1                                  text1            0098F8
__ptext10                                 text10           00B9C8
__ptext100                                text100          0077E2
__ptext101                                text101          00B40E
__ptext102                                text102          00890C
__ptext103                                text103          00B338
__ptext104                                text104          0032E2
__ptext105                                text105          008B94
__ptext106                                text106          00B9F6
__ptext107                                text107          009E1E
__ptext108                                text108          004AD8
__ptext109                                text109          00B63A
__ptext11                                 text11           00B74E
__ptext110                                text110          003DA2
__ptext111                                text111          00B54A
__ptext112                                text112          00A070
__ptext113                                text113          008578
__ptext114                                text114          007118
__ptext115                                text115          00BBD6
__ptext116                                text116          009350
__ptext117                                text117          007CEC
__ptext118                                text118          008D38
__ptext119                                text119          008E00
__ptext12                                 text12           00B81A
__ptext120                                text120          003694
__ptext121                                text121          00A776
__ptext122                                text122          00A954
__ptext123                                text123          009AF8
__ptext124                                text124          0076DC
__ptext125                                text125          00BB2C
__ptext126                                text126          00B452
__ptext127                                text127          00A590
__ptext128                                text128          00BC40
__ptext129                                text129          00ADB6
__ptext13                                 text13           00FFFA
__ptext130                                text130          0083A4
__ptext131                                text131          00BA4E
__ptext132                                text132          009638
__ptext133                                text133          008EC8
__ptext134                                text134          00B7B6
__ptext135                                text135          00B586
__ptext136                                text136          00ACF2
__ptext137                                text137          00B672
__ptext138                                text138          00AD54
__ptext139                                text139          00FF70
__ptext14                                 text14           00B086
__ptext140                                text140          00B494
__ptext141                                text141          0078E6
__ptext142                                text142          007FDE
__ptext143                                text143          005632
__ptext144                                text144          00271A
__ptext145                                text145          00A7EE
__ptext146                                text146          006FDC
__ptext147                                text147          00691A
__ptext148                                text148          0065D8
__ptext149                                text149          006C08
__ptext15                                 text15           0022F4
__ptext150                                text150          00ABC8
__ptext151                                text151          009114
__ptext152                                text152          008C6A
__ptext153                                text153          00BB0C
__ptext154                                text154          00A60A
__ptext155                                text155          004112
__ptext156                                text156          00AE14
__ptext157                                text157          0075CA
__ptext158                                text158          00AA2A
__ptext159                                text159          009A50
__ptext16                                 text16           0089E6
__ptext160                                text160          00A9C0
__ptext161                                text161          00BC52
__ptext162                                text162          009EB4
__ptext163                                text163          00BB94
__ptext164                                text164          00940C
__ptext165                                text165          005ACE
__ptext166                                text166          00AFDE
__ptext167                                text167          00A8DE
__ptext168                                text168          00AF86
__ptext169                                text169          00B7E8
__ptext17                                 text17           001D90
__ptext170                                text170          00BC56
__ptext171                                text171          00BC58
__ptext173                                text173          0081CA
__ptext174                                text174          00B384
__ptext175                                text175          00BA76
__ptext176                                text176          00AA92
__ptext177                                text177          00A316
__ptext178                                text178          004DEE
__ptext179                                text179          00979A
__ptext18                                 text18           002F24
__ptext180                                text180          00B5C2
__ptext181                                text181          0060DA
__ptext182                                text182          00BBAA
__ptext183                                text183          007376
__ptext184                                text184          00A866
__ptext185                                text185          008660
__ptext186                                text186          009292
__ptext187                                text187          00BC5A
__ptext189                                text189          00848E
__ptext19                                 text19           000850
__ptext190                                text190          00B5FE
__ptext191                                text191          00AAFA
__ptext192                                text192          00A398
__ptext193                                text193          0050DC
__ptext194                                text194          00984A
__ptext195                                text195          00B6AA
__ptext196                                text196          006288
__ptext197                                text197          00BBC0
__ptext198                                text198          0074A2
__ptext199                                text199          00A684
__ptext2                                  text2            00BBEA
__ptext20                                 text20           0047BA
__ptext200                                text200          008748
__ptext201                                text201          0094C6
__ptext202                                text202          00BC5C
__ptext21                                 text21           00539E
__ptext22                                 text22           009052
__ptext23                                 text23           00150E
__ptext24                                 text24           00A294
__ptext25                                 text25           00B124
__ptext26                                 text26           007EE6
__ptext27                                 text27           006A98
__ptext28                                 text28           00A41A
__ptext29                                 text29           00B84A
__ptext3                                  text3            00B6E2
__ptext30                                 text30           00BB4A
__ptext31                                 text31           00A498
__ptext32                                 text32           00BC0C
__ptext33                                 text33           00A18A
__ptext34                                 text34           00B718
__ptext35                                 text35           00882E
__ptext36                                 text36           00BAEA
__ptext37                                 text37           00BC46
__ptext38                                 text38           008F8E
__ptext39                                 text39           00AECE
__ptext4                                  text4            008ABE
__ptext40                                 text40           009D84
__ptext41                                 text41           0079EA
__ptext42                                 text42           00B4D2
__ptext43                                 text43           00A514
__ptext44                                 text44           0099A4
__ptext45                                 text45           007BEE
__ptext46                                 text46           00BC16
__ptext47                                 text47           009F4A
__ptext48                                 text48           007AEC
__ptext49                                 text49           00BC20
__ptext5                                  text5            007DEA
__ptext50                                 text50           00AB62
__ptext51                                 text51           00BA9E
__ptext52                                 text52           00BAC4
__ptext53                                 text53           00B782
__ptext54                                 text54           00B170
__ptext55                                 text55           00B1BC
__ptext56                                 text56           00B3CA
__ptext57                                 text57           00B208
__ptext58                                 text58           00B254
__ptext59                                 text59           00B2A0
__ptext6                                  text6            005CDA
__ptext60                                 text60           00B2EC
__ptext61                                 text61           00AC90
__ptext62                                 text62           00B87A
__ptext63                                 text63           00B8AA
__ptext64                                 text64           006EA0
__ptext65                                 text65           00A210
__ptext66                                 text66           009FDE
__ptext67                                 text67           002B3C
__ptext68                                 text68           00B50E
__ptext69                                 text69           00B8DA
__ptext7                                  text7            00BB64
__ptext70                                 text70           00BC2A
__ptext71                                 text71           00BC32
__ptext72                                 text72           009B9E
__ptext73                                 text73           005EDE
__ptext74                                 text74           006432
__ptext75                                 text75           00A6FE
__ptext76                                 text76           0096EA
__ptext77                                 text77           00B034
__ptext78                                 text78           00724A
__ptext79                                 text79           0091D4
__ptext8                                  text8            00B99A
__ptext80                                 text80           00B90A
__ptext81                                 text81           009580
__ptext82                                 text82           00BB7C
__ptext83                                 text83           009CE4
__ptext84                                 text84           00B93A
__ptext85                                 text85           00BC4A
__ptext86                                 text86           00BC4E
__ptext87                                 text87           00677A
__ptext88                                 text88           005888
__ptext89                                 text89           003A28
__ptext9                                  text9            006D58
__ptext90                                 text90           00B96A
__ptext91                                 text91           00446C
__ptext92                                 text92           00A102
__ptext93                                 text93           00BA24
__ptext94                                 text94           00B0D6
__ptext95                                 text95           00BBFC
__ptext96                                 text96           0080D6
__ptext97                                 text97           009C42
__ptext98                                 text98           00BC3A
__ptext99                                 text99           00AF2A
__ramtop                                  ramtop           000F00
__smallconst                              smallconst       000000
_ackDiagnostics                           bssBANK1         0001BB
_ackEventCheckLen                         text82           00BB7C
_ackEventProcessMessage                   text21           00539E
_ackGetDiagnostic                         text59           00B2A0
_ackPowerUp                               text10           00B9C8
_addEvent                                 text143          005632
_alwaysSendInvertedProducedEvent          text101          00B40E
_alwaysSendInvertedProducedEvent$5679     cstackBANK1      0001D1
_bootProcessMessage                       text22           009052
_bootService                              mediumconst      00EF69
_canDiagnostics                           bssBANK1         000180
_canEsdData                               text51           00BA9E
_canFactoryReset                          text125          00BB2C
_canFillRxFifo                            text181          0060DA
_canGetDiagnostic                         text54           00B170
_canId                                    bssBANK0         0000B6
_canIsr                                   text174          00B384
_canIsr$intlevel1                         text174          00B38E
_canPowerUp                               text6            005CDA
_canPri                                   mediumconst      00EE87
_canProcessMessage                        text16           0089E6
_canReceiveMessage                        text73           005EDE
_canSendMessage                           text108          004AD8
_canService                               mediumconst      00EEEB
_canTransmitFailed                        bssBANK0         0000B5
_canTransmitTimeout                       bssCOMRAM        000005
_canTransport                             mediumconst      00EF7B
_canTxError                               text177          00A316
_channelDefaultNVs                        mediumconst      00EE8C
_checkCANTimeout                          text176          00AA92
_checkLen                                 text83           009CE4
_checkPowerOnPb                           text116          009350
_checkRemoveTableEntry                    text145          00A7EE
_checkTxFifo                              text178          004DEE
_clearAllEvents                           text129          00ADB6
_clearEvents                              text140          00B494
_completed                                text103          00B338
_configIO                                 text155          004112
_configIO$4721                            cstackBANK0      0000A3
_configs                                  mediumconst      00EE35
_consumer2QDiagnostics                    bssBANK1         0001B5
_consumer2QGetDiagnostic                  text55           00B1BC
_consumer2QPowerUp                        text7            00BB64
_consumer2QProcessMessage                 text17           001D90
_defaultEvents                            text139          00FF70
_defaultNVs                               text136          00ACF2
_delayCount                               bssBANK1         000124
_deleteActionRange                        text142          007FDE
_deleteHappeningRange                     text141          0078E6
_deleteTwoActionQueue                     text102          00890C
_doEvlrn                                  text35           00882E
_doEvuln                                  text33           00A18A
_doNenrd                                  text31           00A498
_doNerd                                   text30           00BB4A
_doNnclr                                  text29           00B84A
_doNnevn                                  text28           00A41A
_doReqev                                  text27           006A98
_doReval                                  text26           007EE6
_doRqevn                                  text25           00B124
_doSOD                                    text100          0077E2
_doWait                                   text97           009C42
_doneTwoAction                            text98           00BC3A
_eeBootFlag                               bssCOMRAM        000020
_enh                                      bssBANK0         0000B7
_enl                                      bssCOMRAM        00001F
_enumerationInProgress                    bssBANK0         0000B3
_enumerationRequired                      bssBANK0         0000B4
_enumerationResults                       bssBANK1         000114
_enumerationStartTime                     bssCOMRAM        000001
_eraseFlashBlock                          text160          00A9C0
_eventAckService                          mediumconst      00EF57
_eventChains                              bssBIGRAM        000429
_eventCoeService                          mediumconst      00EF45
_eventConsumer2QService                   mediumconst      00EED9
_eventProducerService                     mediumconst      00EF33
_eventTable                               _eventTable_text 00EF80
_eventTable_absaddr                       (abs)            00EF80
_eventTeachService                        mediumconst      00EF21
_evs                                      bssBANK1         000100
_evtIdxToTableIndex                       text32           00BC0C
_expedited                                bssBANK0         0000BC
_expeditedQueueBuf                        bssBANK2         0002E0
_expeditedReadIndex                       bssBANK0         0000BE
_expeditedWriteIndex                      bssBANK0         0000BD
_factoryReset                             text124          0076DC
_factoryResetGlobalEvents                 text170          00BC56
_findEvent                                text151          009114
_findService                              text81           009580
_findServiceIndex                         text66           009FDE
_flags                                    bssBANK0         0000BA
_flashBlock                               bssBANK0         0000AD
_flashBuffer                              bssBANK2         000248
_flashCounter                             bssBANK0         0000AF
_flashDelays                              bssBANK1         000144
_flashFlags                               bssBANK0         0000BB
_flashFlushTime                           bssBANK1         000170
_flushFlashBlock                          text159          009A50
_getBufferPointer                         text79           0091D4
_getEN                                    text154          00A60A
_getEVs                                   text149          006C08
_getEv                                    text148          0065D8
_getHash                                  text153          00BB0C
_getNN                                    text152          008C6A
_getNV                                    text166          00AFDE
_getNextWriteMessage                      text113          008578
_getParameter                             text64           006EA0
_getParameterFlags                        text65           00A210
_getTwoAction                             text95           00BBFC
_handleSelfEnumeration                    text78           00724A
_happening2Event                          bssBANK2         000200
_have                                     text112          00A070
_heartbeatSequence                        bssBANK0         0000C8
_heartbeatTimer                           bssCOMRAM        000019
_highIsr                                  text189          00848E
_initInputScan                            text4            008ABE
_initOutputs                              text3            00B6E2
_initRomOps                               text115          00BBD6
_initTicker                               text14           00B086
_initTimedResponse                        text13           00FFFA
_inputScan                                text104          0032E2
_inputState                               bssBANK2         000288
_io                                       bssBANK0         0000C2
_io@inputs$F4810                          bssBANK0         0000C1
_isEvent                                  text111          00B54A
_isEvent$4131                             cstackBANK0      00008D
_isrHigh                                  mainSec          00833A
_isrLow                                   mainSec          0082B8
_lastActionPollTime                       bssBANK1         000164
_lastInputScanTime                        bssBANK1         000168
_lastServoStartTime                       bssBANK1         00016C
_last_mode_flags                          bssBANK0         0000CA
_last_mode_state                          bssBANK0         0000CB
_ledState                                 bssBANK0         0000B1
_ledTimer                                 bssCOMRAM        000011
_leds_poll                                text120          003694
_leds_powerUp                             text12           00B81A
_loadFlashBlock                           text158          00AA2A
_loadNvCache                              text138          00AD54
_loop                                     text87           00677A
_lowIsr                                   text173          0081CA
_main                                     text0            00AE72
_memcpy                                   text77           00B034
_mnsDiagnostics                           bssBANK1         0001A0
_mnsFactoryReset                          text127          00A590
_mnsGetDiagnostic                         text57           00B208
_mnsLowIsr                                text175          00BA76
_mnsPoll                                  text67           002B3C
_mnsPowerUp                               text9            006D58
_mnsProcessMessage                        text19           000850
_mnsService                               mediumconst      00EF0F
_mnsTRallDiagnosticsCallback              text41           0079EA
_mnsTRrqnpnCallback                       text42           00B4D2
_mnsTRserviceDiscoveryCallback            text40           009D84
_mode_flags                               bssBANK1         00017F
_mode_state                               bssBANK0         0000CE
_name                                     _name_text       000848
_name_absaddr                             (abs)            000848
_needsStarting                            text94           00B0D6
_nerdCallback                             text43           00A514
_nn                                       bssBANK1         00017C
_nnh                                      bssBANK0         0000B9
_nnl                                      bssBANK0         0000B8
_normalQueueBuf                           bssBANK3         000380
_normalReadIndex                          bssBANK0         0000C0
_normalWriteIndex                         bssBANK0         0000BF
_numEv                                    text45           007BEE
_nvCache                                  bssBANK3         000300
_nvDiagnostics                            bssBANK0         0000CF
_nvFactoryReset                           text126          00B452
_nvGetDiagnostic                          text56           00B3CA
_nvGetESDdata                             text52           00BAC4
_nvPowerUp                                text8            00B99A
_nvProcessMessage                         text18           002F24
_nvService                                mediumconst      00EEFD
_nvTRnvrdCallback                         text39           00AECE
_outputState                              bssBANK1         000134
_paramBlock                               _paramBlock_text 000820
_paramBlock_absaddr                       (abs)            000820
_pbDownTimer                              text119          008E00
_pbTimer                                  bssBANK0         0000A9
_pbUpTimer                                text118          008D38
_peekTwoActionQueue                       text96           0080D6
_poll                                     text15           0022F4
_pollTimedResponse                        text38           008F8E
_pop                                      text76           0096EA
_popTwoAction                             text99           00AF2A
_powerUp                                  text5            007DEA
_previousNN                               bssBANK1         00017A
_priorities                               mediumconst      00ED35
_processActions                           text89           003A28
_processEnumeration                       text74           006432
_processOutputs                           text88           005888
_producerDiagnostics                      bssBANK1         0001B9
_producerGetDiagnostic                    text58           00B254
_producerProcessMessage                   text20           0047BA
_pulseDelays                              bssBANK1         000154
_push                                     text110          003DA2
_pushTwoAction                            text72           009B9E
_quantity                                 text109          00B63A
_readInput                                text114          007118
_readNVM                                  text167          00A8DE
_rebuildHashtable                         text147          00691A
_removeEvent                              text34           00B718
_removeTableEntry                         text146          006FDC
_reqevCallback                            text44           0099A4
_rxBuffers                                bssBIGRAM        0006A9
_rxQueue                                  bssCOMRAM        000026
_saveNV                                   text137          00B672
_sendInvertedProducedEvent                text92           00A102
_sendInvertedProducedEvent$5674           cstackBANK1      0001D3
_sendMessage                              text107          009E1E
_sendMessage2                             text69           00B8DA
_sendMessage3                             text63           00B8AA
_sendMessage4                             text106          00B9F6
_sendMessage5                             text84           00B93A
_sendMessage6                             text62           00B87A
_sendMessage7                             text80           00B90A
_sendProducedEvent                        text105          008B94
_services                                 mediumconst      00EE75
_setDigitalOutput                         text164          00940C
_setExpeditedActions                      text71           00BC32
_setLEDsByMode                            text68           00B50E
_setNV                                    text47           009F4A
_setNewCanId                              text75           00A6FE
_setNormalActions                         text70           00BC2A
_setOutputPin                             text165          005ACE
_setOutputState                           text93           00BA24
_setTimedResponseDelay                    text49           00BC20
_setType                                  text135          00B586
_setup                                    text1            0098F8
_setupModePreviousMode                    bssBANK0         0000C9
_showStatus                               text117          007CEC
_startDigitalOutput                       text91           00446C
_startDigitalOutput$4769                  cstackBANK1      0001D9
_startOutput                              text90           00B96A
_startTime                                bssCOMRAM        00000D
_startTimedResponse                       text61           00AC90
_startWait                                bssCOMRAM        000009
_started                                  bssBANK0         0000C3
_tableIndexToEvtIdx                       text46           00BC16
_teachCheckLen                            text24           00A294
_teachDiagnostics                         bssBANK1         0001B7
_teachFactoryReset                        text128          00BC40
_teachGetDiagnostic                       text60           00B2EC
_teachGetESDdata                          text53           00B782
_teachPowerUp                             text11           00B74E
_teachProcessMessage                      text23           00150E
_tickGet                                  text121          00A776
_timedResponseAllServicesFlag             bssBANK0         0000C6
_timedResponseCallback                    bssCOMRAM        00001D
_timedResponseDelay                       bssBANK1         00017E
_timedResponseServiceIndex                bssBANK0         0000C7
_timedResponseStep                        bssBANK0         0000C4
_timedResponseTime                        bssBANK1         000174
_timedResponseType                        bssBANK0         0000C5
_timerExtension1                          bssBANK0         0000CD
_timerExtension2                          bssBANK0         0000CC
_tmpMessage                               bssBANK1         0001AC
_transport                                bssBANK1         000178
_txBuffers                                bssBANK2         000298
_txQueue                                  bssCOMRAM        000021
_universalEventsInit                      text2            00BBEA
_updateModuleErrorStatus                  text163          00BB94
_uptimeTimer                              bssCOMRAM        000015
_validStart                               text150          00ABC8
_writeEv                                  text144          00271A
_writeNVM                                 text156          00AE14
ackEventCheckLen@m                        cstackBANK1      0001CE
ackEventCheckLen@needed                   cstackBANK1      0001D0
ackEventProcessMessage@ev                 cstackBANK2      0002F0
ackEventProcessMessage@eventEN            cstackBANK2      0002F2
ackEventProcessMessage@eventIndex         cstackBANK2      0002F4
ackEventProcessMessage@eventNN            cstackBANK2      0002F5
ackEventProcessMessage@m                  cstackBANK1      0001F9
ackGetDiagnostic@index                    cstackBANK0      000091
ackPowerUp@i                              cstackBANK0      00008D
addEvent@e                                cstackBANK1      0001E7
addEvent@error                            cstackBANK1      0001E5
addEvent@evNum                            cstackBANK1      0001DE
addEvent@evVal                            cstackBANK1      0001DF
addEvent@eventNumber                      cstackBANK1      0001DC
addEvent@f                                cstackBANK1      0001E6
addEvent@forceOwnNN                       cstackBANK1      0001E0
addEvent@nodeNumber                       cstackBANK1      0001DA
addEvent@tableIndex                       cstackBANK1      0001E8
alwaysSendInvertedProducedEvent@action    cstackBANK1      0001D0
alwaysSendInvertedProducedEvent@invert    cstackBANK1      0001CF
alwaysSendInvertedProducedEvent@state     cstackBANK1      0001CE
bootProcessMessage@m                      cstackBANK1      0001F9
btemp                                     temp             000055
canEsdData@id                             cstackBANK0      00008D
canFillRxFifo@m                           cstackBANK0      000071
canFillRxFifo@ptr                         cstackBANK0      000073
canGetDiagnostic@index                    cstackBANK0      000091
canPowerUp@temp                           cstackBANK0      000098
canProcessMessage@m                       cstackBANK1      0001F9
canReceiveMessage@m                       cstackBANK1      0001BD
canReceiveMessage@messageAvailable        cstackBANK1      0001C0
canReceiveMessage@mp                      cstackBANK1      0001C1
canReceiveMessage@p                       cstackBANK1      0001C3
canSendMessage@m                          cstackBANK0      0000A0
canSendMessage@mp                         cstackBANK0      000099
checkLen@m                                cstackBANK1      0001CA
checkLen@needed                           cstackBANK1      0001CC
checkLen@service                          cstackBANK1      0001CD
checkPowerOnPb@i                          cstackBANK1      0001F6
checkRemoveTableEntry@e                   cstackBANK1      0001CD
checkRemoveTableEntry@tableIndex          cstackBANK1      0001CC
checkTxFifo@m                             cstackBANK0      000071
checkTxFifo@mp                            cstackBANK0      000073
clearAllEvents@tableIndex                 cstackBANK1      0001CA
clearEvents@io                            cstackBANK1      0001E4
completed@action                          cstackBANK0      00008D
completed@io                              cstackBANK0      000091
completed@type                            cstackBANK0      00008F
configIO@action                           cstackBANK0      0000A5
configIO@i                                cstackBANK0      0000A7
configIO@type                             cstackBANK0      0000A6
consumer2QGetDiagnostic@index             cstackBANK0      000091
consumer2QProcessMessage@action           cstackBANK4      00040B
consumer2QProcessMessage@ca               cstackBANK4      000409
consumer2QProcessMessage@change           cstackBANK4      000401
consumer2QProcessMessage@e                cstackBANK4      00040A
consumer2QProcessMessage@end              cstackBANK4      000400
consumer2QProcessMessage@firstAction      cstackBANK4      000404
consumer2QProcessMessage@io               cstackBANK4      000407
consumer2QProcessMessage@m                cstackBANK1      0001F9
consumer2QProcessMessage@masked_action    cstackBANK4      000408
consumer2QProcessMessage@nextAction       cstackBANK4      000403
consumer2QProcessMessage@nextSimultaneous cstackBANK4      000406
consumer2QProcessMessage@opc              cstackBANK4      000402
consumer2QProcessMessage@tableIndex       cstackBANK4      000405
defaultEvents@en                          cstackBANK1      0001EA
defaultEvents@io                          cstackBANK1      0001EC
defaultEvents@type                        cstackBANK1      0001E9
defaultNVs@i                              cstackBANK1      0001BE
defaultNVs@io                             cstackBANK1      0001BD
defaultNVs@type                           cstackBANK0      0000A5
deleteActionRange@action                  cstackBANK1      0001E1
deleteActionRange@e                       cstackBANK1      0001E2
deleteActionRange@number                  cstackBANK1      0001DA
deleteActionRange@tableIndex              cstackBANK1      0001E3
deleteActionRange@updated                 cstackBANK1      0001E0
deleteHappeningRange@h                    cstackBANK1      0001E1
deleteHappeningRange@happening            cstackBANK1      0001E0
deleteHappeningRange@number               cstackBANK1      0001DA
deleteHappeningRange@tableIndex           cstackBANK1      0001E2
deleteTwoActionQueue@index                cstackBANK0      00008E
deleteTwoActionQueue@qty                  cstackBANK0      00008D
doEvlrn@error                             cstackBANK1      0001F6
doEvlrn@evNum                             cstackBANK1      0001F4
doEvlrn@evVal                             cstackBANK1      0001F5
doEvlrn@eventNumber                       cstackBANK1      0001F2
doEvlrn@nodeNumber                        cstackBANK1      0001F0
doEvuln@eventNumber                       cstackBANK1      0001D3
doEvuln@nodeNumber                        cstackBANK1      0001D1
doEvuln@result                            cstackBANK1      0001D5
doNenrd@eventNumber                       cstackBANK1      0001CD
doNenrd@index                             cstackBANK1      0001CA
doNenrd@nodeNumber                        cstackBANK1      0001CB
doNenrd@tableIndex                        cstackBANK1      0001CF
doNnevn@count                             cstackBANK1      0001CA
doNnevn@f                                 cstackBANK1      0001C9
doNnevn@i                                 cstackBANK1      0001CB
doReqev@evNum                             cstackBANK1      0001CF
doReqev@evVal                             cstackBANK1      0001D0
doReqev@eventNumber                       cstackBANK1      0001CD
doReqev@nodeNumber                        cstackBANK1      0001CB
doReqev@tableIndex                        cstackBANK1      0001D2
doReval@enNum                             cstackBANK1      0001CD
doReval@evIndex                           cstackBANK1      0001CC
doReval@evNum                             cstackBANK1      0001CA
doReval@evVal                             cstackBANK1      0001CE
doReval@tableIndex                        cstackBANK1      0001D0
doRqevn@count                             cstackBANK1      0001C5
doRqevn@i                                 cstackBANK1      0001C6
doSOD@event_inverted                      cstackBANK1      0001D6
doSOD@io                                  cstackBANK1      0001D7
doSOD@state                               cstackBANK1      0001D5
doWait@duration                           cstackBANK0      00009D
end_of_initialization                     cinit            00AC86
eraseFlashBlock@interruptEnabled          cstackBANK0      00008D
evtIdxToTableIndex@evtIdx                 cstackBANK0      00008D
factoryReset@i                            cstackBANK1      0001F5
findEvent@chainIdx                        cstackBANK1      0001C8
findEvent@en                              cstackBANK1      0001C5
findEvent@eventNumber                     cstackBANK1      0001BF
findEvent@hash                            cstackBANK1      0001C7
findEvent@nn                              cstackBANK1      0001C3
findEvent@nodeNumber                      cstackBANK1      0001BD
findEvent@tableIndex                      cstackBANK1      0001C9
findService@i                             cstackBANK0      000092
findService@id                            cstackBANK0      000091
findServiceIndex@i                        cstackBANK0      000090
findServiceIndex@serviceType              cstackBANK0      00008F
flushFlashBlock@i                         cstackBANK0      00008F
flushFlashBlock@interruptEnabled          cstackBANK0      00008E
getBufferPointer@b                        cstackBANK0      00008F
getEN@hi                                  cstackBANK0      00009D
getEN@lo                                  cstackBANK0      00009F
getEN@tableIndex                          cstackBANK0      0000A1
getEVs@evIdx                              cstackBANK0      0000A2
getEVs@evNum                              cstackBANK0      0000A4
getEVs@f                                  cstackBANK0      0000A1
getEVs@tableIndex                         cstackBANK0      0000A3
getEv@evNum                               cstackBANK0      00009D
getEv@f                                   cstackBANK0      0000A4
getEv@tableIndex                          cstackBANK0      0000A5
getHash@en                                cstackBANK0      0000A5
getHash@hash                              cstackBANK0      0000A8
getHash@nn                                cstackBANK0      0000A3
getNN@f                                   cstackBANK0      0000A1
getNN@hi                                  cstackBANK0      00009D
getNN@lo                                  cstackBANK0      00009F
getNN@tableIndex                          cstackBANK0      0000A2
getNV@index                               cstackBANK0      000090
getNextWriteMessage@q                     cstackBANK0      00008D
getNextWriteMessage@wr                    cstackBANK0      000098
getParameter@idx                          cstackBANK0      000092
getParameterFlags@flags                   cstackBANK0      000091
handleSelfEnumeration@incomingCanId       cstackBANK0      00009D
handleSelfEnumeration@p                   cstackBANK0      000097
have@i                                    cstackBANK0      000090
have@id                                   cstackBANK0      00008F
highIsr@i                                 cstackCOMRAM     000048
i1_getBufferPointer                       text186          009292
i1_getNextWriteMessage                    text185          008660
i1_handleSelfEnumeration                  text183          007376
i1_isEvent                                text180          00B5C2
i1_isEvent$4131                           cstackBANK0      000060
i1_pop                                    text179          00979A
i1_tickGet                                text184          00A866
i1_updateModuleErrorStatus                text182          00BBAA
i1getBufferPointer@b                      cstackBANK0      000062
i1getNextWriteMessage@q                   cstackBANK0      000060
i1getNextWriteMessage@wr                  cstackBANK0      00006B
i1handleSelfEnumeration@incomingCanId     cstackBANK0      000070
i1handleSelfEnumeration@p                 cstackBANK0      00006A
i1isEvent@opc                             cstackBANK0      000061
i1pop@q                                   cstackBANK0      000060
i1pop@ret                                 cstackBANK0      000067
i1tickGet@IntFlag1                        cstackBANK0      000065
i1tickGet@IntFlag2                        cstackBANK0      000064
i1tickGet@currentTime                     cstackBANK0      000066
i2_canFillRxFifo                          text196          006288
i2_canIsr                                 text190          00B5FE
i2_canTxError                             text192          00A398
i2_checkCANTimeout                        text191          00AAFA
i2_checkTxFifo                            text193          0050DC
i2_getBufferPointer                       text201          0094C6
i2_getNextWriteMessage                    text200          008748
i2_handleSelfEnumeration                  text198          0074A2
i2_isEvent                                text195          00B6AA
i2_isEvent$4131                           cstackCOMRAM     00002B
i2_pop                                    text194          00984A
i2_tickGet                                text199          00A684
i2_updateModuleErrorStatus                text197          00BBC0
i2canFillRxFifo@m                         cstackCOMRAM     00003C
i2canFillRxFifo@ptr                       cstackCOMRAM     00003E
i2checkTxFifo@m                           cstackCOMRAM     00003C
i2checkTxFifo@mp                          cstackCOMRAM     00003E
i2getBufferPointer@b                      cstackCOMRAM     00002D
i2getNextWriteMessage@q                   cstackCOMRAM     00002B
i2getNextWriteMessage@wr                  cstackCOMRAM     000036
i2handleSelfEnumeration@incomingCanId     cstackCOMRAM     00003B
i2handleSelfEnumeration@p                 cstackCOMRAM     000035
i2isEvent@opc                             cstackCOMRAM     00002C
i2pop@q                                   cstackCOMRAM     00002B
i2pop@ret                                 cstackCOMRAM     000032
i2tickGet@IntFlag1                        cstackCOMRAM     000030
i2tickGet@IntFlag2                        cstackCOMRAM     00002F
i2tickGet@currentTime                     cstackCOMRAM     000031
initInputScan@input                       cstackBANK0      000099
initOutputs@io                            cstackBANK0      00008D
initTicker@divider                        cstackBANK0      00008E
initTicker@i                              cstackBANK0      00008F
initTicker@priority                       cstackBANK0      00008D
inputScan@change                          cstackBANK1      0001D0
inputScan@input                           cstackBANK1      0001D1
int$flags                                 temp             000055
intlevel0                                 text             000000
intlevel1                                 text             000000
intlevel2                                 text             000000
intlevel3                                 text             000000
isEvent@opc                               cstackBANK0      00008E
isa$std                                   (abs)            000001
isa$xinst                                 (abs)            000000
loadFlashBlock@i                          cstackBANK0      00008D
loadNvCache@i                             cstackBANK0      00009B
loadNvCache@temp                          cstackBANK0      000099
lowIsr@i                                  cstackBANK0      00007D
memcpy@d                                  cstackBANK0      000094
memcpy@d1                                 cstackBANK0      00008D
memcpy@n                                  cstackBANK0      000091
memcpy@s                                  cstackBANK0      000096
memcpy@s1                                 cstackBANK0      00008F
memcpy@tmp                                cstackBANK0      000093
mnsGetDiagnostic@index                    cstackBANK0      000091
mnsPowerUp@i                              cstackBANK0      000097
mnsPowerUp@temp                           cstackBANK0      000098
mnsProcessMessage@d                       cstackBANK1      0001FC
mnsProcessMessage@i                       cstackBANK1      0001FB
mnsProcessMessage@m                       cstackBANK1      0001F9
mnsProcessMessage@newMode                 cstackBANK1      0001FE
mnsTRallDiagnosticsCallback@d             cstackBANK1      0001D2
mnsTRallDiagnosticsCallback@serviceIndex  cstackBANK1      0001CC
mnsTRallDiagnosticsCallback@step          cstackBANK1      0001CD
mnsTRrqnpnCallback@step                   cstackBANK1      0001CD
mnsTRserviceDiscoveryCallback@step        cstackBANK1      0001CD
needsStarting@act                         cstackBANK0      00008D
needsStarting@io                          cstackBANK0      00008F
needsStarting@type                        cstackBANK0      00008E
nerdCallback@eventNumber                  cstackBANK1      0001D0
nerdCallback@nodeNumber                   cstackBANK1      0001CE
nerdCallback@step                         cstackBANK1      0001CD
numEv@f                                   cstackBANK0      0000A2
numEv@num                                 cstackBANK0      0000A1
numEv@tableIndex                          cstackBANK0      0000A3
nvFactoryReset@i                          cstackBANK0      0000A3
nvGetDiagnostic@index                     cstackBANK0      000090
nvGetESDdata@id                           cstackBANK0      00008D
nvPowerUp@i                               cstackBANK0      00009C
nvProcessMessage@m                        cstackBANK1      0001F9
nvProcessMessage@valueOrError             cstackBANK1      0001FD
nvTRnvrdCallback@serviceIndex             cstackBANK1      0001CC
nvTRnvrdCallback@step                     cstackBANK1      0001CD
nvTRnvrdCallback@valueOrError             cstackBANK1      0001CE
pbDownTimer@timeout                       cstackBANK0      0000A8
pbUpTimer@timeout                         cstackBANK0      0000A8
peekTwoActionQueue@index                  cstackBANK0      000090
peekTwoActionQueue@qty                    cstackBANK0      00008F
poll@handled                              cstackBANK4      00041E
poll@i                                    cstackBANK4      00041F
poll@m                                    cstackBANK4      000420
pollTimedResponse@result                  cstackBANK1      0001DD
pop@q                                     cstackBANK0      00008D
pop@ret                                   cstackBANK0      000094
powerUp@i                                 cstackBANK1      0001CB
processActions@action                     cstackBANK1      0001EB
processActions@io                         cstackBANK1      0001E7
processActions@ioAction                   cstackBANK1      0001E8
processActions@nextAction                 cstackBANK1      0001E9
processActions@nextIo                     cstackBANK1      0001E6
processActions@nextType                   cstackBANK1      0001E5
processActions@peekItem                   cstackBANK1      0001E3
processActions@simultaneous               cstackBANK1      0001E2
processActions@type                       cstackBANK1      0001E4
processEnumeration@enumResult             cstackBANK0      0000A6
processEnumeration@i                      cstackBANK0      0000A8
processEnumeration@newCanId               cstackBANK0      0000A7
processOutputs@io                         cstackBANK1      0001CF
producerGetDiagnostic@index               cstackBANK0      000091
producerProcessMessage@ev                 cstackBANK1      0001FB
producerProcessMessage@h                  cstackBANK1      0001FD
producerProcessMessage@index              cstackBANK1      0001FE
producerProcessMessage@m                  cstackBANK1      0001F9
push@m                                    cstackBANK0      00008E
push@q                                    cstackBANK0      00008D
pushTwoAction@a                           cstackBANK0      00008D
quantity@q                                cstackBANK0      00008D
readInput@io                              cstackBANK0      000093
readNVM@index                             cstackBANK0      000091
readNVM@type                              cstackBANK0      000096
rebuildHashtable@chainIdx                 cstackBANK1      0001C4
rebuildHashtable@ev                       cstackBANK1      0001C0
rebuildHashtable@happening                cstackBANK1      0001C3
rebuildHashtable@hash                     cstackBANK1      0001C2
rebuildHashtable@tableIndex               cstackBANK1      0001C5
removeEvent@eventNumber                   cstackBANK1      0001CE
removeEvent@nodeNumber                    cstackBANK1      0001CC
removeEvent@tableIndex                    cstackBANK1      0001D0
removeTableEntry@f                        cstackBANK1      0001CA
removeTableEntry@tableIndex               cstackBANK1      0001CB
reqevCallback@ev                          cstackBANK1      0001D4
reqevCallback@eventNumber                 cstackBANK1      0001D8
reqevCallback@nEv                         cstackBANK1      0001D3
reqevCallback@nodeNumber                  cstackBANK1      0001D6
reqevCallback@step                        cstackBANK1      0001CD
reqevCallback@tableIndex                  cstackBANK1      0001DA
saveNV@index                              cstackBANK0      0000A4
saveNV@value                              cstackBANK0      0000A1
sendInvertedProducedEvent@can_send_off    cstackBANK1      0001D1
sendInvertedProducedEvent@can_send_on     cstackBANK1      0001D0
sendInvertedProducedEvent@happening       cstackBANK1      0001D2
sendInvertedProducedEvent@invert          cstackBANK1      0001CF
sendInvertedProducedEvent@state           cstackBANK1      0001CE
sendInvertedProducedEvent@state_to_send   cstackBANK1      0001D5
sendMessage2@data1                        cstackBANK0      0000A5
sendMessage2@data2                        cstackBANK0      0000A6
sendMessage2@opc                          cstackBANK0      0000A7
sendMessage3@data1                        cstackBANK0      0000A5
sendMessage3@data2                        cstackBANK0      0000A6
sendMessage3@data3                        cstackBANK0      0000A7
sendMessage3@opc                          cstackBANK0      0000A8
sendMessage4@data1                        cstackBANK0      0000A5
sendMessage4@data2                        cstackBANK0      0000A6
sendMessage4@data3                        cstackBANK0      0000A7
sendMessage4@data4                        cstackBANK0      0000A8
sendMessage4@opc                          cstackBANK1      0001C5
sendMessage5@data1                        cstackBANK1      0001C5
sendMessage5@data2                        cstackBANK1      0001C6
sendMessage5@data3                        cstackBANK1      0001C7
sendMessage5@data4                        cstackBANK1      0001C8
sendMessage5@data5                        cstackBANK1      0001C9
sendMessage5@opc                          cstackBANK0      0000A5
sendMessage6@data1                        cstackBANK1      0001C5
sendMessage6@data2                        cstackBANK1      0001C6
sendMessage6@data3                        cstackBANK1      0001C7
sendMessage6@data4                        cstackBANK1      0001C8
sendMessage6@data5                        cstackBANK1      0001C9
sendMessage6@data6                        cstackBANK1      0001CA
sendMessage6@opc                          cstackBANK0      0000A5
sendMessage7@data1                        cstackBANK1      0001C5
sendMessage7@data2                        cstackBANK1      0001C6
sendMessage7@data3                        cstackBANK1      0001C7
sendMessage7@data4                        cstackBANK1      0001C8
sendMessage7@data5                        cstackBANK1      0001C9
sendMessage7@data6                        cstackBANK1      0001CA
sendMessage7@data7                        cstackBANK1      0001CB
sendMessage7@opc                          cstackBANK0      0000A5
sendMessage@data1                         cstackBANK1      0001BE
sendMessage@data2                         cstackBANK1      0001BF
sendMessage@data3                         cstackBANK1      0001C0
sendMessage@data4                         cstackBANK1      0001C1
sendMessage@data5                         cstackBANK1      0001C2
sendMessage@data6                         cstackBANK1      0001C3
sendMessage@data7                         cstackBANK1      0001C4
sendMessage@len                           cstackBANK1      0001BD
sendMessage@opc                           cstackBANK0      0000A4
sendProducedEvent@happening               cstackBANK1      0001CB
sendProducedEvent@onOff                   cstackBANK1      0001C6
sendProducedEvent@opc                     cstackBANK1      0001C8
sendProducedEvent@producedEventEN         cstackBANK1      0001C9
sendProducedEvent@producedEventNN         cstackBANK1      0001CC
setDigitalOutput@io                       cstackBANK0      000099
setDigitalOutput@pinState                 cstackBANK0      000098
setDigitalOutput@state                    cstackBANK0      000097
setNV@index                               cstackBANK1      0001F8
setNV@oldValue                            cstackBANK1      0001F7
setNV@value                               cstackBANK1      0001F4
setNewCanId@newCanId                      cstackBANK0      0000A1
setOutputPin@io                           cstackBANK0      000094
setOutputPin@state                        cstackBANK0      000091
setOutputState@act                        cstackBANK0      00008D
setOutputState@type                       cstackBANK0      00008E
setTimedResponseDelay@d                   cstackBANK0      00008D
setType@index                             cstackBANK1      0001EE
setType@io                                cstackBANK1      0001EF
setType@type                              cstackBANK1      0001ED
showStatus@s                              cstackBANK0      00008F
stackhi                                   (abs)            000000
stacklo                                   (abs)            000000
start                                     init             00001C
startDigitalOutput@actionState            cstackBANK1      0001DC
startDigitalOutput@io                     cstackBANK1      0001DD
startDigitalOutput@pinState               cstackBANK1      0001DB
startDigitalOutput@state                  cstackBANK1      0001D6
startOutput@act                           cstackBANK1      0001DE
startOutput@io                            cstackBANK1      0001E0
startOutput@type                          cstackBANK1      0001DF
startTimedResponse@callback               cstackBANK0      000092
startTimedResponse@serviceIndex           cstackBANK0      000091
startTimedResponse@type                   cstackBANK0      000094
start_initialization                      cinit            00AC2E
tableIndexToEvtIdx@tableIndex             cstackBANK0      00008D
teachCheckLen@learn                       cstackBANK1      0001D1
teachCheckLen@m                           cstackBANK1      0001CE
teachCheckLen@needed                      cstackBANK1      0001D0
teachGetDiagnostic@index                  cstackBANK0      000091
teachGetESDdata@id                        cstackBANK0      00008D
teachPowerUp@i                            cstackBANK1      0001C6
teachProcessMessage@m                     cstackBANK1      0001F9
tickGet@IntFlag1                          cstackBANK0      000092
tickGet@IntFlag2                          cstackBANK0      000091
tickGet@currentTime                       cstackBANK0      000093
ttemp5                                    temp             000056
ttemp6                                    temp             000059
ttemp7                                    temp             00005D
validStart@f                              cstackBANK0      00009C
validStart@tableIndex                     cstackBANK0      00009B
writeEv@e                                 cstackBANK1      0001D6
writeEv@evNum                             cstackBANK1      0001CE
writeEv@evVal                             cstackBANK1      0001CF
writeEv@f                                 cstackBANK1      0001D7
writeEv@nextF                             cstackBANK1      0001D5
writeEv@nextIdx                           cstackBANK1      0001D9
writeEv@startIndex                        cstackBANK1      0001D4
writeEv@tableIndex                        cstackBANK1      0001D8
writeNVM@index                            cstackBANK0      00009A
writeNVM@type                             cstackBANK0      0000A0
writeNVM@value                            cstackBANK0      00009D
wtemp8                                    temp             000056


MODULE INFORMATION

Module		Function		Class		Link	Load	Size
../main.c
		_loop          		CODE           	677A	0000	416
		_APP_isSuitableTimeToWriteFlash		CODE           	BC52	0000	4
		_APP_GetEventState		CODE           	BC46	0000	4
		_APP_preProcessMessage		CODE           	BC4A	0000	4
		_APP_factoryReset		CODE           	B7B6	0000	50
		_setType       		CODE           	B586	0000	60
		_configIO      		CODE           	4112	0000	858
		_APP_lowIsr    		CODE           	BC5A	0000	2
		_setup         		CODE           	98F8	0000	172
		_APP_testMode  		CODE           	BC58	0000	2
		_APP_postProcessMessage		CODE           	BC4E	0000	4
		_APP_highIsr   		CODE           	BC5C	0000	2

../main.c estimated size: 1578

../event_consumerDualActionQueue.c
		_popTwoAction  		CODE           	AF2A	0000	92
		_deleteActionRange		CODE           	7FDE	0000	248
		_peekTwoActionQueue		CODE           	80D6	0000	244
		_deleteTwoActionQueue		CODE           	890C	0000	218
		_consumer2QPowerUp		CODE           	BB64	0000	24
		_consumer2QProcessMessage		CODE           	1D90	0000	1380
		_pushTwoAction 		CODE           	9B9E	0000	164
		_consumer2QGetDiagnostic		CODE           	B1BC	0000	76
		_setNormalActions		CODE           	BC2A	0000	8
		_setExpeditedActions		CODE           	BC32	0000	8
		_doneTwoAction 		CODE           	BC3A	0000	6
		_getTwoAction  		CODE           	BBFC	0000	16

../event_consumerDualActionQueue.c estimated size: 2484

../digitalOut.c
		_setDigitalOutput		CODE           	940C	0000	186
		_startDigitalOutput		CODE           	446C	0000	846
		_processOutputs		CODE           	5888	0000	582
		_setOutputPin  		CODE           	5ACE	0000	524
		_initOutputs   		CODE           	B6E2	0000	54

../digitalOut.c estimated size: 2192

../../VLCBlib_PIC/boot.c
		_bootProcessMessage		CODE           	9052	0000	194

../../VLCBlib_PIC/boot.c estimated size: 194

C:\Program Files\Microchip\xc8\v2.46\pic\sources\c99\common\awdiv.c
		___awdiv       		CODE           	8EC8	0000	198

C:\Program Files\Microchip\xc8\v2.46\pic\sources\c99\common\awdiv.c estimated size: 198

../universalNv.c
		_APP_nvValidate		CODE           	AB62	0000	102
		_APP_nvValueChanged		CODE           	7AEC	0000	258
		_defaultNVs    		CODE           	ACF2	0000	98
		_APP_nvDefault 		CODE           	83A4	0000	234

../universalNv.c estimated size: 692

../universalEvents.c
		_APP_addEvent  		CODE           	BAEA	0000	34
		_defaultEvents 		CODE           	FF70	0000	138
		_processActions		CODE           	3A28	0000	890
		_universalEventsInit		CODE           	BBEA	0000	18
		_doWait        		CODE           	9C42	0000	162
		_doSOD         		CODE           	77E2	0000	260
		_factoryResetGlobalEvents		CODE           	BC56	0000	2
		_alwaysSendInvertedProducedEvent		CODE           	B40E	0000	68
		_clearEvents   		CODE           	B494	0000	62
		_sendInvertedProducedEvent		CODE           	A102	0000	136

../universalEvents.c estimated size: 1770

../outputs.c
		_startOutput   		CODE           	B96A	0000	48
		_setOutputState		CODE           	BA24	0000	42
		_needsStarting 		CODE           	B0D6	0000	78
		_completed     		CODE           	B338	0000	76

../outputs.c estimated size: 244

../../VLCBlib_PIC/can18_ecan.c
		_checkCANTimeout		CODE           	AA92	0000	104
		_canFactoryReset		CODE           	BB2C	0000	30
		_canReceiveMessage		CODE           	5EDE	0000	508
		_checkTxFifo   		CODE           	4DEE	0000	750
		_canIsr        		CODE           	B384	0000	70
		_canGetDiagnostic		CODE           	B170	0000	76
		_canPowerUp    		CODE           	5CDA	0000	516
		_canSendMessage		CODE           	4AD8	0000	790
		_getBufferPointer		CODE           	91D4	0000	190
		_setNewCanId   		CODE           	A6FE	0000	120
		_canFillRxFifo 		CODE           	60DA	0000	430
		_handleSelfEnumeration		CODE           	724A	0000	300
		_processEnumeration		CODE           	6432	0000	422
		_canEsdData    		CODE           	BA9E	0000	38
		_canProcessMessage		CODE           	89E6	0000	216
		_canTxError    		CODE           	A316	0000	130

../../VLCBlib_PIC/can18_ecan.c estimated size: 4690

../../VLCBlib_PIC/messageQueue.c
		_getNextWriteMessage		CODE           	8578	0000	232
		_quantity      		CODE           	B63A	0000	56
		_pop           		CODE           	96EA	0000	176
		_push          		CODE           	3DA2	0000	880

../../VLCBlib_PIC/messageQueue.c estimated size: 1344

../../VLCBlib_PIC/ticktime.c
		_initTicker    		CODE           	B086	0000	80
		_tickGet       		CODE           	A776	0000	120

../../VLCBlib_PIC/ticktime.c estimated size: 200

shared
		_eventTeachService		MEDIUMCONST    	EF21	0000	18
		i1_isEvent     		CODE           	B5C2	0000	60
		i2_isEvent     		CODE           	B6AA	0000	56
		i2_checkTxFifo 		CODE           	50DC	0000	706
		_eventTable    		CODE           	EF80	0000	4080
		i2_canFillRxFifo		CODE           	6288	0000	426
		_services      		MEDIUMCONST    	EE75	0000	18
		_eventConsumer2QService		MEDIUMCONST    	EED9	0000	18
		_channelDefaultNVs		MEDIUMCONST    	EE8C	0000	77
		i1_getNextWriteMessage		CODE           	8660	0000	232
		i2_getNextWriteMessage		CODE           	8748	0000	230
		i1_pop         		CODE           	979A	0000	176
		i2_pop         		CODE           	984A	0000	174
		_priorities    		MEDIUMCONST    	ED35	0000	256
		_paramBlock    		CODE           	0820	0000	32
		i2_checkCANTimeout		CODE           	AAFA	0000	104
		i1_tickGet     		CODE           	A866	0000	120
		_eventCoeService		MEDIUMCONST    	EF45	0000	18
		i2_tickGet     		CODE           	A684	0000	122
		i2_canIsr      		CODE           	B5FE	0000	60
		_eventAckService		MEDIUMCONST    	EF57	0000	18
		_mnsService    		MEDIUMCONST    	EF0F	0000	18
		_nvService     		MEDIUMCONST    	EEFD	0000	18
		__initialization		CODE           	AC2E	0000	88
		_canPri        		MEDIUMCONST    	EE87	0000	5
		i1_updateModuleErrorStatus		CODE           	BBAA	0000	22
		i2_updateModuleErrorStatus		CODE           	BBC0	0000	22
		_configs       		MEDIUMCONST    	EE35	0000	64
		i1_getBufferPointer		CODE           	9292	0000	190
		i2_getBufferPointer		CODE           	94C6	0000	186
		_name          		CODE           	0848	0000	8
		_bootService   		MEDIUMCONST    	EF69	0000	18
		i2_canTxError  		CODE           	A398	0000	130
		_canService    		MEDIUMCONST    	EEEB	0000	18
		i1_handleSelfEnumeration		CODE           	7376	0000	300
		_canTransport  		MEDIUMCONST    	EF7B	0000	4
		i2_handleSelfEnumeration		CODE           	74A2	0000	296
		_eventProducerService		MEDIUMCONST    	EF33	0000	18

shared estimated size: 8406

C:\Program Files\Microchip\xc8\v2.46\pic\sources\c99\common\__lldiv.c
		___lldiv       		CODE           	9AF8	0000	166

C:\Program Files\Microchip\xc8\v2.46\pic\sources\c99\common\__lldiv.c estimated size: 166

../../VLCBlib_PIC/statusLeds2.c
		_showStatus    		CODE           	7CEC	0000	254
		_leds_poll     		CODE           	3694	0000	916
		_leds_powerUp  		CODE           	B81A	0000	48

../../VLCBlib_PIC/statusLeds2.c estimated size: 1218

../../VLCBlib_PIC/event_acknowledge.c
		_ackGetDiagnostic		CODE           	B2A0	0000	76
		_ackPowerUp    		CODE           	B9C8	0000	46
		_ackEventCheckLen		CODE           	BB7C	0000	24
		_ackEventProcessMessage		CODE           	539E	0000	660

../../VLCBlib_PIC/event_acknowledge.c estimated size: 806

C:\Program Files\Microchip\xc8\v2.46\pic\sources\c99\common\Umul16.c
		___wmul        		CODE           	BA4E	0000	40

C:\Program Files\Microchip\xc8\v2.46\pic\sources\c99\common\Umul16.c estimated size: 40

../../VLCBlib_PIC/mns.c
		_getParameterFlags		CODE           	A210	0000	132
		_mnsTRrqnpnCallback		CODE           	B4D2	0000	60
		_mnsLowIsr     		CODE           	BA76	0000	40
		_setLEDsByMode 		CODE           	B50E	0000	60
		_mnsProcessMessage		CODE           	0850	0000	3262
		_mnsTRserviceDiscoveryCallback		CODE           	9D84	0000	154
		_mnsFactoryReset		CODE           	A590	0000	122
		_mnsGetDiagnostic		CODE           	B208	0000	76
		_updateModuleErrorStatus		CODE           	BB94	0000	22
		_mnsTRallDiagnosticsCallback		CODE           	79EA	0000	258
		_getParameter  		CODE           	6EA0	0000	316
		_mnsPowerUp    		CODE           	6D58	0000	328
		_mnsPoll       		CODE           	2B3C	0000	1000

../../VLCBlib_PIC/mns.c estimated size: 5830

../../VLCBlib_PIC/event_producer.c
		_producerProcessMessage		CODE           	47BA	0000	798
		_deleteHappeningRange		CODE           	78E6	0000	260
		_sendProducedEvent		CODE           	8B94	0000	214
		_producerGetDiagnostic		CODE           	B254	0000	76

../../VLCBlib_PIC/event_producer.c estimated size: 1348

../../VLCBlib_PIC/event_teach.c
		_teachPowerUp  		CODE           	B74E	0000	52
		_doReqev       		CODE           	6A98	0000	368
		_doEvlrn       		CODE           	882E	0000	222
		_checkRemoveTableEntry		CODE           	A7EE	0000	120
		_nerdCallback  		CODE           	A514	0000	124
		_addEvent      		CODE           	5632	0000	598
		_reqevCallback 		CODE           	99A4	0000	172
		_teachFactoryReset		CODE           	BC40	0000	6
		_removeEvent   		CODE           	B718	0000	54
		_getHash       		CODE           	BB0C	0000	32
		_doRqevn       		CODE           	B124	0000	76
		_teachGetDiagnostic		CODE           	B2EC	0000	76
		_getNN         		CODE           	8C6A	0000	206
		_doNenrd       		CODE           	A498	0000	124
		_teachGetESDdata		CODE           	B782	0000	52
		_getEv         		CODE           	65D8	0000	418
		_doNerd        		CODE           	BB4A	0000	26
		_writeEv       		CODE           	271A	0000	1058
		_doEvuln       		CODE           	A18A	0000	134
		_getEVs        		CODE           	6C08	0000	336
		_validStart    		CODE           	ABC8	0000	102
		_numEv         		CODE           	7BEE	0000	254
		_getEN         		CODE           	A60A	0000	122
		_tableIndexToEvtIdx		CODE           	BC16	0000	10
		_findEvent     		CODE           	9114	0000	192
		_doReval       		CODE           	7EE6	0000	248
		_clearAllEvents		CODE           	ADB6	0000	94
		_removeTableEntry		CODE           	6FDC	0000	316
		_teachCheckLen 		CODE           	A294	0000	130
		_teachProcessMessage		CODE           	150E	0000	2178
		_rebuildHashtable		CODE           	691A	0000	382
		_doNnclr       		CODE           	B84A	0000	48
		_evtIdxToTableIndex		CODE           	BC0C	0000	10
		_doNnevn       		CODE           	A41A	0000	126

../../VLCBlib_PIC/event_teach.c estimated size: 8466

../../VLCBlib_PIC/vlcb.c
		_lowIsr        		CODE           	81CA	0000	238
		_have          		CODE           	A070	0000	146
		_factoryReset  		CODE           	76DC	0000	262
		_isrLow        		CODE           	82B8	0000	130
		_pbUpTimer     		CODE           	8D38	0000	200
		_findService   		CODE           	9580	0000	184
		_checkLen      		CODE           	9CE4	0000	160
		_main          		CODE           	AE72	0000	92
		_highIsr       		CODE           	848E	0000	234
		_powerUp       		CODE           	7DEA	0000	252
		_findServiceIndex		CODE           	9FDE	0000	146
		_setTimedResponseDelay		CODE           	BC20	0000	10
		_poll          		CODE           	22F4	0000	1062
		_checkPowerOnPb		CODE           	9350	0000	188
		_isEvent       		CODE           	B54A	0000	60
		_isrHigh       		CODE           	833A	0000	106
		_sendMessage   		CODE           	9E1E	0000	150
		_sendMessage2  		CODE           	B8DA	0000	48
		_sendMessage3  		CODE           	B8AA	0000	48
		_sendMessage4  		CODE           	B9F6	0000	46
		_sendMessage5  		CODE           	B93A	0000	48
		_sendMessage6  		CODE           	B87A	0000	48
		_sendMessage7  		CODE           	B90A	0000	48
		_pbDownTimer   		CODE           	8E00	0000	200

../../VLCBlib_PIC/vlcb.c estimated size: 4106

../inputs.c
		_inputScan     		CODE           	32E2	0000	946
		_initInputScan 		CODE           	8ABE	0000	214
		_readInput     		CODE           	7118	0000	306

../inputs.c estimated size: 1466

C:\Program Files\Microchip\xc8\v2.46\pic\sources\c99\common\memcpy.c
		_memcpy        		CODE           	B034	0000	82

C:\Program Files\Microchip\xc8\v2.46\pic\sources\c99\common\memcpy.c estimated size: 82

C:\Program Files\Microchip\xc8\v2.46\pic\sources\c99\common\awmod.c
		___awmod       		CODE           	9638	0000	178

C:\Program Files\Microchip\xc8\v2.46\pic\sources\c99\common\awmod.c estimated size: 178

../../VLCBlib_PIC/timedResponse.c
		_pollTimedResponse		CODE           	8F8E	0000	196
		_startTimedResponse		CODE           	AC90	0000	98
		_initTimedResponse		CODE           	FFFA	0000	6

../../VLCBlib_PIC/timedResponse.c estimated size: 300

C:\Program Files\Microchip\xc8\v2.46\pic\sources\c99\common\Umul32.c
		___lmul        		CODE           	A954	0000	108

C:\Program Files\Microchip\xc8\v2.46\pic\sources\c99\common\Umul32.c estimated size: 108

../../VLCBlib_PIC/nv.c
		_saveNV        		CODE           	B672	0000	56
		_nvGetESDdata  		CODE           	BAC4	0000	38
		_nvPowerUp     		CODE           	B99A	0000	46
		_nvTRnvrdCallback		CODE           	AECE	0000	92
		_loadNvCache   		CODE           	AD54	0000	98
		_nvGetDiagnostic		CODE           	B3CA	0000	68
		_nvFactoryReset		CODE           	B452	0000	66
		_nvProcessMessage		CODE           	2F24	0000	958
		_getNV         		CODE           	AFDE	0000	86
		_setNV         		CODE           	9F4A	0000	148

../../VLCBlib_PIC/nv.c estimated size: 1656

../../VLCBlib_PIC/nvm.c
		_readNVM       		CODE           	A8DE	0000	118
		_flushFlashBlock		CODE           	9A50	0000	168
		_EEPROM_Read   		CODE           	B7E8	0000	50
		_EEPROM_Write  		CODE           	9EB4	0000	150
		_FLASH_Write   		CODE           	75CA	0000	274
		_initRomOps    		CODE           	BBD6	0000	20
		_loadFlashBlock		CODE           	AA2A	0000	104
		_writeNVM      		CODE           	AE14	0000	94
		_FLASH_Read    		CODE           	AF86	0000	88
		_eraseFlashBlock		CODE           	A9C0	0000	106

../../VLCBlib_PIC/nvm.c estimated size: 1172

